
C:/Users/EE-BUMEMS04/Desktop/MusicPlayer/main.axf:     file format elf32-littlearm


Disassembly of section .vectors:

00000000 <__cs3_interrupt_vector>:
   0:	18 f0 9f e5 18 f0 9f e5 18 f0 9f e5 18 f0 9f e5     ................
  10:	18 f0 9f e5 18 f0 9f e5 18 f0 9f e5 18 f0 9f e5     ................
  20:	40 00 00 00 e8 07 00 00 ec 07 00 00 f0 07 00 00     @...............
  30:	f4 07 00 00 b0 99 01 00 68 07 00 00 f8 07 00 00     ........h.......

Disassembly of section .text:

00000040 <__cs3_reset>:
      40:	ea000026 	b	e0 <__cs3_start_asm_sim>

00000044 <__cs3_start_c>:
      44:	e59f608c 	ldr	r6, [pc, #140]	; d8 <__cs3_start_c+0x94>
      48:	e3560000 	cmp	r6, #0
      4c:	e92d4080 	push	{r7, lr}
      50:	e2466001 	sub	r6, r6, #1
      54:	0a00001e 	beq	d4 <__cs3_start_c+0x90>
      58:	e59f507c 	ldr	r5, [pc, #124]	; dc <__cs3_start_c+0x98>
      5c:	e3a00000 	mov	r0, #0
      60:	e3a01000 	mov	r1, #0
      64:	e515200c 	ldr	r2, [r5, #-12]
      68:	e515e010 	ldr	lr, [r5, #-16]
      6c:	e5154008 	ldr	r4, [r5, #-8]
      70:	e15e0002 	cmp	lr, r2
      74:	00822004 	addeq	r2, r2, r4
      78:	0a000009 	beq	a4 <__cs3_start_c+0x60>
      7c:	e3540000 	cmp	r4, #0
      80:	0a000007 	beq	a4 <__cs3_start_c+0x60>
      84:	e1a07002 	mov	r7, r2
      88:	e1a0c002 	mov	r12, r2
      8c:	e8be000c 	ldm	lr!, {r2, r3}
      90:	e8ac000c 	stmia	r12!, {r2, r3}
      94:	e067300c 	rsb	r3, r7, r12
      98:	e1540003 	cmp	r4, r3
      9c:	e1a0200c 	mov	r2, r12
      a0:	1afffff9 	bne	8c <__cs3_start_c+0x48>
      a4:	e515e004 	ldr	lr, [r5, #-4]
      a8:	e35e0000 	cmp	lr, #0
      ac:	11a03002 	movne	r3, r2
      b0:	0a000003 	beq	c4 <__cs3_start_c+0x80>
      b4:	e8a30003 	stmia	r3!, {r0, r1}
      b8:	e062c003 	rsb	r12, r2, r3
      bc:	e15e000c 	cmp	lr, r12
      c0:	1afffffb 	bne	b4 <__cs3_start_c+0x70>
      c4:	e2466001 	sub	r6, r6, #1
      c8:	e3760001 	cmn	r6, #1
      cc:	e2855014 	add	r5, r5, #20
      d0:	1affffe3 	bne	64 <__cs3_start_c+0x20>
      d4:	eb006600 	bl	198dc <__cs3_premain>
      d8:	00000001 	.word	0x00000001
      dc:	00019fcc 	.word	0x00019fcc

000000e0 <__cs3_start_asm_sim>:
      e0:	e28f103c 	add	r1, pc, #60	; 0x3c
      e4:	e3a00016 	mov	r0, #22
      e8:	ef123456 	svc	0x00123456
      ec:	e3500000 	cmp	r0, #0
      f0:	ba000008 	blt	118 <__cs3_start_asm_sim+0x38>
      f4:	e59f2028 	ldr	r2, [pc, #40]	; 124 <__cs3_heap_start_ptr>
      f8:	e59fd01c 	ldr	sp, [pc, #28]	; 11c <__cs3_start_asm_sim+0x3c>
      fc:	e5920008 	ldr	r0, [r2, #8]
     100:	e3500000 	cmp	r0, #0
     104:	11a0d000 	movne	sp, r0
     108:	e59f1010 	ldr	r1, [pc, #16]	; 120 <__cs3_start_asm_sim+0x40>
     10c:	e5920004 	ldr	r0, [r2, #4]
     110:	e3500000 	cmp	r0, #0
     114:	15810000 	strne	r0, [r1]
     118:	eaffffc9 	b	44 <__cs3_start_c>
     11c:	3ffffffc 	.word	0x3ffffffc
     120:	0001a9c8 	.word	0x0001a9c8

00000124 <__cs3_heap_start_ptr>:
     124:	0003ddb0 	.word	0x0003ddb0

00000128 <_start>:
     128:	e51fd000 	ldr	sp, [pc, #-0]	; 130 <_start+0x8>
     12c:	eaffffc4 	b	44 <__cs3_start_c>
     130:	3ffffffc 	.word	0x3ffffffc

00000134 <deregister_tm_clones>:
     134:	e92d4008 	push	{r3, lr}
     138:	e59f002c 	ldr	r0, [pc, #44]	; 16c <deregister_tm_clones+0x38>
     13c:	e59f302c 	ldr	r3, [pc, #44]	; 170 <deregister_tm_clones+0x3c>
     140:	e0603003 	rsb	r3, r0, r3
     144:	e3530006 	cmp	r3, #6
     148:	8a000001 	bhi	154 <deregister_tm_clones+0x20>
     14c:	e8bd4008 	pop	{r3, lr}
     150:	e12fff1e 	bx	lr
     154:	e59f3018 	ldr	r3, [pc, #24]	; 174 <deregister_tm_clones+0x40>
     158:	e3530000 	cmp	r3, #0
     15c:	0afffffa 	beq	14c <deregister_tm_clones+0x18>
     160:	e1a0e00f 	mov	lr, pc
     164:	e12fff13 	bx	r3
     168:	eafffff7 	b	14c <deregister_tm_clones+0x18>
     16c:	0001a9d0 	.word	0x0001a9d0
     170:	0001a9d3 	.word	0x0001a9d3
     174:	00000000 	.word	0x00000000

00000178 <register_tm_clones>:
     178:	e92d4008 	push	{r3, lr}
     17c:	e59f0034 	ldr	r0, [pc, #52]	; 1b8 <register_tm_clones+0x40>
     180:	e59f3034 	ldr	r3, [pc, #52]	; 1bc <register_tm_clones+0x44>
     184:	e0603003 	rsb	r3, r0, r3
     188:	e1a03143 	asr	r3, r3, #2
     18c:	e0833fa3 	add	r3, r3, r3, lsr #31
     190:	e1b010c3 	asrs	r1, r3, #1
     194:	1a000001 	bne	1a0 <register_tm_clones+0x28>
     198:	e8bd4008 	pop	{r3, lr}
     19c:	e12fff1e 	bx	lr
     1a0:	e59f2018 	ldr	r2, [pc, #24]	; 1c0 <register_tm_clones+0x48>
     1a4:	e3520000 	cmp	r2, #0
     1a8:	0afffffa 	beq	198 <register_tm_clones+0x20>
     1ac:	e1a0e00f 	mov	lr, pc
     1b0:	e12fff12 	bx	r2
     1b4:	eafffff7 	b	198 <register_tm_clones+0x20>
     1b8:	0001a9d0 	.word	0x0001a9d0
     1bc:	0001a9d0 	.word	0x0001a9d0
     1c0:	00000000 	.word	0x00000000

000001c4 <__do_global_dtors_aux>:
     1c4:	e92d4010 	push	{r4, lr}
     1c8:	e59f402c 	ldr	r4, [pc, #44]	; 1fc <__do_global_dtors_aux+0x38>
     1cc:	e5d43000 	ldrb	r3, [r4]
     1d0:	e3530000 	cmp	r3, #0
     1d4:	1a000006 	bne	1f4 <__do_global_dtors_aux+0x30>
     1d8:	ebffffd5 	bl	134 <deregister_tm_clones>
     1dc:	e59f301c 	ldr	r3, [pc, #28]	; 200 <__do_global_dtors_aux+0x3c>
     1e0:	e3530000 	cmp	r3, #0
     1e4:	159f0018 	ldrne	r0, [pc, #24]	; 204 <__do_global_dtors_aux+0x40>
     1e8:	1320f000 	nopne	{0}
     1ec:	e3a03001 	mov	r3, #1
     1f0:	e5c43000 	strb	r3, [r4]
     1f4:	e8bd4010 	pop	{r4, lr}
     1f8:	e12fff1e 	bx	lr
     1fc:	0001a9e0 	.word	0x0001a9e0
     200:	00000000 	.word	0x00000000
     204:	00019a4c 	.word	0x00019a4c

00000208 <frame_dummy>:
     208:	e92d4008 	push	{r3, lr}
     20c:	e59f3034 	ldr	r3, [pc, #52]	; 248 <frame_dummy+0x40>
     210:	e3530000 	cmp	r3, #0
     214:	159f0030 	ldrne	r0, [pc, #48]	; 24c <frame_dummy+0x44>
     218:	159f1030 	ldrne	r1, [pc, #48]	; 250 <frame_dummy+0x48>
     21c:	1320f000 	nopne	{0}
     220:	e59f002c 	ldr	r0, [pc, #44]	; 254 <frame_dummy+0x4c>
     224:	e5903000 	ldr	r3, [r0]
     228:	e3530000 	cmp	r3, #0
     22c:	0a000003 	beq	240 <frame_dummy+0x38>
     230:	e59f3020 	ldr	r3, [pc, #32]	; 258 <frame_dummy+0x50>
     234:	e3530000 	cmp	r3, #0
     238:	11a0e00f 	movne	lr, pc
     23c:	112fff13 	bxne	r3
     240:	e8bd4008 	pop	{r3, lr}
     244:	eaffffcb 	b	178 <register_tm_clones>
     248:	00000000 	.word	0x00000000
     24c:	00019a4c 	.word	0x00019a4c
     250:	0001a9e4 	.word	0x0001a9e4
     254:	00019fd0 	.word	0x00019fd0
     258:	00000000 	.word	0x00000000

0000025c <read>:

ALT_SDMMC_CARD_INFO_t Card_Info;

int read(uint32_t sector, uint8_t *buffer, uint32_t sector_count)
{
	alt_sdmmc_read(&Card_Info, buffer, (void*)(sector*FAT_SECTOR_SIZE), FAT_SECTOR_SIZE*sector_count);
     25c:	e1a0c480 	lsl	r12, r0, #9
     260:	e30a09fc 	movw	r0, #43516	; 0xa9fc


ALT_SDMMC_CARD_INFO_t Card_Info;

int read(uint32_t sector, uint8_t *buffer, uint32_t sector_count)
{
     264:	e92d4008 	push	{r3, lr}
	alt_sdmmc_read(&Card_Info, buffer, (void*)(sector*FAT_SECTOR_SIZE), FAT_SECTOR_SIZE*sector_count);
     268:	e1a03482 	lsl	r3, r2, #9
     26c:	e3400001 	movt	r0, #1
     270:	e1a0200c 	mov	r2, r12
     274:	eb001aee 	bl	6e34 <alt_sdmmc_read>
	return 1;
}
     278:	e3a00001 	mov	r0, #1
     27c:	e8bd8008 	pop	{r3, pc}

00000280 <sevenseg>:
extern volatile int volume;
extern volatile int songnumber;


char sevenseg(short number){
  if      (number==0) return 0b0111111;
     280:	e3500000 	cmp	r0, #0
     284:	0a000013 	beq	2d8 <sevenseg+0x58>
  else if (number==1) return 0b0000110;
     288:	e3500001 	cmp	r0, #1
     28c:	0a000013 	beq	2e0 <sevenseg+0x60>
  else if (number==2) return 0b1011011;
     290:	e3500002 	cmp	r0, #2
     294:	0a000013 	beq	2e8 <sevenseg+0x68>
  else if (number==3) return 0b1001111;
     298:	e3500003 	cmp	r0, #3
     29c:	0a000013 	beq	2f0 <sevenseg+0x70>
  else if (number==4) return 0b1100110;
     2a0:	e3500004 	cmp	r0, #4
     2a4:	0a000013 	beq	2f8 <sevenseg+0x78>
  else if (number==5) return 0b1101101;
     2a8:	e3500005 	cmp	r0, #5
     2ac:	0a000013 	beq	300 <sevenseg+0x80>
  else if (number==6) return 0b1111101;
     2b0:	e3500006 	cmp	r0, #6
     2b4:	0a000013 	beq	308 <sevenseg+0x88>
  else if (number==7) return 0b0000111;
     2b8:	e3500007 	cmp	r0, #7
     2bc:	012fff1e 	bxeq	lr
  else if (number==8) return 0b1111111;
     2c0:	e3500008 	cmp	r0, #8
     2c4:	0a000011 	beq	310 <sevenseg+0x90>
  else if (number==9) return 0b1101111;
     2c8:	e3500009 	cmp	r0, #9
     2cc:	13a0007e 	movne	r0, #126	; 0x7e
     2d0:	03a0006f 	moveq	r0, #111	; 0x6f
     2d4:	e12fff1e 	bx	lr
extern volatile int volume;
extern volatile int songnumber;


char sevenseg(short number){
  if      (number==0) return 0b0111111;
     2d8:	e3a0003f 	mov	r0, #63	; 0x3f
     2dc:	e12fff1e 	bx	lr
  else if (number==1) return 0b0000110;
     2e0:	e3a00006 	mov	r0, #6
     2e4:	e12fff1e 	bx	lr
  else if (number==2) return 0b1011011;
     2e8:	e3a0005b 	mov	r0, #91	; 0x5b
     2ec:	e12fff1e 	bx	lr
  else if (number==3) return 0b1001111;
     2f0:	e3a0004f 	mov	r0, #79	; 0x4f
     2f4:	e12fff1e 	bx	lr
  else if (number==4) return 0b1100110;
     2f8:	e3a00066 	mov	r0, #102	; 0x66
     2fc:	e12fff1e 	bx	lr
  else if (number==5) return 0b1101101;
     300:	e3a0006d 	mov	r0, #109	; 0x6d
     304:	e12fff1e 	bx	lr
  else if (number==6) return 0b1111101;
     308:	e3a0007d 	mov	r0, #125	; 0x7d
  else if (number==7) return 0b0000111;
  else if (number==8) return 0b1111111;
  else if (number==9) return 0b1101111;
  else return 0b1111110;
}
     30c:	e12fff1e 	bx	lr
  else if (number==3) return 0b1001111;
  else if (number==4) return 0b1100110;
  else if (number==5) return 0b1101101;
  else if (number==6) return 0b1111101;
  else if (number==7) return 0b0000111;
  else if (number==8) return 0b1111111;
     310:	e3a0007f 	mov	r0, #127	; 0x7f
     314:	e12fff1e 	bx	lr

00000318 <hexDisp>:
  else if (number==9) return 0b1101111;
  else return 0b1111110;
}
void hexDisp(volatile int ind){
     318:	e92d0070 	push	{r4, r5, r6}
     31c:	e24dd00c 	sub	sp, sp, #12
     320:	e58d0004 	str	r0, [sp, #4]
		
	ind=ind/48000;
     324:	e30129f1 	movw	r2, #6641	; 0x19f1
     328:	e3402576 	movt	r2, #1398	; 0x576
	
	unsigned int sec=ind%60;
     32c:	e3080889 	movw	r0, #34953	; 0x8889
  else if (number==9) return 0b1101111;
  else return 0b1111110;
}
void hexDisp(volatile int ind){
		
	ind=ind/48000;
     330:	e59d3004 	ldr	r3, [sp, #4]
	
	unsigned int sec=ind%60;
     334:	e3480888 	movt	r0, #34952	; 0x8888
	unsigned int min=ind/60;	
	char HEX0 = sevenseg(sec%10);	
     338:	e30ccccd 	movw	r12, #52429	; 0xcccd
     33c:	e34ccccc 	movt	r12, #52428	; 0xcccc
  else if (number==9) return 0b1101111;
  else return 0b1111110;
}
void hexDisp(volatile int ind){
		
	ind=ind/48000;
     340:	e0c21392 	smull	r1, r2, r2, r3
     344:	e1a03fc3 	asr	r3, r3, #31
     348:	e0633542 	rsb	r3, r3, r2, asr #10
     34c:	e58d3004 	str	r3, [sp, #4]
	
	unsigned int sec=ind%60;
     350:	e59d2004 	ldr	r2, [sp, #4]
	unsigned int min=ind/60;	
     354:	e59d1004 	ldr	r1, [sp, #4]
}
void hexDisp(volatile int ind){
		
	ind=ind/48000;
	
	unsigned int sec=ind%60;
     358:	e0c34290 	smull	r4, r3, r0, r2
     35c:	e1a05fc2 	asr	r5, r2, #31
	unsigned int min=ind/60;	
     360:	e1a04fc1 	asr	r4, r1, #31
     364:	e0c06190 	smull	r6, r0, r0, r1
}
void hexDisp(volatile int ind){
		
	ind=ind/48000;
	
	unsigned int sec=ind%60;
     368:	e0833002 	add	r3, r3, r2
     36c:	e06532c3 	rsb	r3, r5, r3, asr #5
     370:	e0633203 	rsb	r3, r3, r3, lsl #4
	unsigned int min=ind/60;	
     374:	e0801001 	add	r1, r0, r1
     378:	e06412c1 	rsb	r1, r4, r1, asr #5
}
void hexDisp(volatile int ind){
		
	ind=ind/48000;
	
	unsigned int sec=ind%60;
     37c:	e0423103 	sub	r3, r2, r3, lsl #2
	unsigned int min=ind/60;	
	char HEX0 = sevenseg(sec%10);	
     380:	e082039c 	umull	r0, r2, r12, r3
     384:	e1a021a2 	lsr	r2, r2, #3
     388:	e0822102 	add	r2, r2, r2, lsl #2
     38c:	e0432082 	sub	r2, r3, r2, lsl #1
     390:	e6ff2072 	uxth	r2, r2
extern volatile int volume;
extern volatile int songnumber;


char sevenseg(short number){
  if      (number==0) return 0b0111111;
     394:	e3520000 	cmp	r2, #0
     398:	03a0203f 	moveq	r2, #63	; 0x3f
     39c:	0a000017 	beq	400 <hexDisp+0xe8>
  else if (number==1) return 0b0000110;
     3a0:	e6bf2072 	sxth	r2, r2
     3a4:	e3520001 	cmp	r2, #1
     3a8:	03a02006 	moveq	r2, #6
     3ac:	0a000013 	beq	400 <hexDisp+0xe8>
  else if (number==2) return 0b1011011;
     3b0:	e3520002 	cmp	r2, #2
     3b4:	03a0205b 	moveq	r2, #91	; 0x5b
     3b8:	0a000010 	beq	400 <hexDisp+0xe8>
  else if (number==3) return 0b1001111;
     3bc:	e3520003 	cmp	r2, #3
     3c0:	03a0204f 	moveq	r2, #79	; 0x4f
     3c4:	0a00000d 	beq	400 <hexDisp+0xe8>
  else if (number==4) return 0b1100110;
     3c8:	e3520004 	cmp	r2, #4
     3cc:	03a02066 	moveq	r2, #102	; 0x66
     3d0:	0a00000a 	beq	400 <hexDisp+0xe8>
  else if (number==5) return 0b1101101;
     3d4:	e3520005 	cmp	r2, #5
     3d8:	03a0206d 	moveq	r2, #109	; 0x6d
     3dc:	0a000007 	beq	400 <hexDisp+0xe8>
  else if (number==6) return 0b1111101;
     3e0:	e3520006 	cmp	r2, #6
     3e4:	03a0207d 	moveq	r2, #125	; 0x7d
     3e8:	0a000004 	beq	400 <hexDisp+0xe8>
  else if (number==7) return 0b0000111;
     3ec:	e3520007 	cmp	r2, #7
     3f0:	0a000002 	beq	400 <hexDisp+0xe8>
  else if (number==8) return 0b1111111;
     3f4:	e3520008 	cmp	r2, #8
     3f8:	13a0206f 	movne	r2, #111	; 0x6f
     3fc:	03a0207f 	moveq	r2, #127	; 0x7f
	ind=ind/48000;
	
	unsigned int sec=ind%60;
	unsigned int min=ind/60;	
	char HEX0 = sevenseg(sec%10);	
	char HEX1 = sevenseg(sec/10);	
     400:	e30c0ccd 	movw	r0, #52429	; 0xcccd
     404:	e34c0ccc 	movt	r0, #52428	; 0xcccc
     408:	e0834390 	umull	r4, r3, r0, r3
     40c:	e7ef31d3 	ubfx	r3, r3, #3, #16
extern volatile int volume;
extern volatile int songnumber;


char sevenseg(short number){
  if      (number==0) return 0b0111111;
     410:	e3530000 	cmp	r3, #0
     414:	03a03c3f 	moveq	r3, #16128	; 0x3f00
     418:	0a00001b 	beq	48c <hexDisp+0x174>
  else if (number==1) return 0b0000110;
     41c:	e6bf3073 	sxth	r3, r3
     420:	e3530001 	cmp	r3, #1
     424:	03a03c06 	moveq	r3, #1536	; 0x600
     428:	0a000017 	beq	48c <hexDisp+0x174>
  else if (number==2) return 0b1011011;
     42c:	e3530002 	cmp	r3, #2
     430:	03a03c5b 	moveq	r3, #23296	; 0x5b00
     434:	0a000014 	beq	48c <hexDisp+0x174>
  else if (number==3) return 0b1001111;
     438:	e3530003 	cmp	r3, #3
     43c:	03a03c4f 	moveq	r3, #20224	; 0x4f00
     440:	0a000011 	beq	48c <hexDisp+0x174>
  else if (number==4) return 0b1100110;
     444:	e3530004 	cmp	r3, #4
     448:	03a03c66 	moveq	r3, #26112	; 0x6600
     44c:	0a00000e 	beq	48c <hexDisp+0x174>
  else if (number==5) return 0b1101101;
     450:	e3530005 	cmp	r3, #5
     454:	03a03c6d 	moveq	r3, #27904	; 0x6d00
     458:	0a00000b 	beq	48c <hexDisp+0x174>
  else if (number==6) return 0b1111101;
     45c:	e3530006 	cmp	r3, #6
     460:	03a03c7d 	moveq	r3, #32000	; 0x7d00
     464:	0a000008 	beq	48c <hexDisp+0x174>
  else if (number==7) return 0b0000111;
     468:	e3530007 	cmp	r3, #7
     46c:	03a03c07 	moveq	r3, #1792	; 0x700
     470:	0a000005 	beq	48c <hexDisp+0x174>
  else if (number==8) return 0b1111111;
     474:	e3530008 	cmp	r3, #8
     478:	03a03c7f 	moveq	r3, #32512	; 0x7f00
     47c:	0a000002 	beq	48c <hexDisp+0x174>
  else if (number==9) return 0b1101111;
     480:	e3530009 	cmp	r3, #9
     484:	13a03c7e 	movne	r3, #32256	; 0x7e00
     488:	03a03c6f 	moveq	r3, #28416	; 0x6f00
	
	unsigned int sec=ind%60;
	unsigned int min=ind/60;	
	char HEX0 = sevenseg(sec%10);	
	char HEX1 = sevenseg(sec/10);	
	char HEX2 = sevenseg(min%10);
     48c:	e30c0ccd 	movw	r0, #52429	; 0xcccd
     490:	e34c0ccc 	movt	r0, #52428	; 0xcccc
     494:	e0806190 	umull	r6, r0, r0, r1
     498:	e1a001a0 	lsr	r0, r0, #3
     49c:	e0800100 	add	r0, r0, r0, lsl #2
     4a0:	e0411080 	sub	r1, r1, r0, lsl #1
     4a4:	e6ff1071 	uxth	r1, r1
extern volatile int volume;
extern volatile int songnumber;


char sevenseg(short number){
  if      (number==0) return 0b0111111;
     4a8:	e3510000 	cmp	r1, #0
     4ac:	03a0183f 	moveq	r1, #4128768	; 0x3f0000
     4b0:	0a000018 	beq	518 <hexDisp+0x200>
  else if (number==1) return 0b0000110;
     4b4:	e6bf1071 	sxth	r1, r1
     4b8:	e3510001 	cmp	r1, #1
     4bc:	03a01806 	moveq	r1, #393216	; 0x60000
     4c0:	0a000014 	beq	518 <hexDisp+0x200>
  else if (number==2) return 0b1011011;
     4c4:	e3510002 	cmp	r1, #2
     4c8:	03a0185b 	moveq	r1, #5963776	; 0x5b0000
     4cc:	0a000011 	beq	518 <hexDisp+0x200>
  else if (number==3) return 0b1001111;
     4d0:	e3510003 	cmp	r1, #3
     4d4:	03a0184f 	moveq	r1, #5177344	; 0x4f0000
     4d8:	0a00000e 	beq	518 <hexDisp+0x200>
  else if (number==4) return 0b1100110;
     4dc:	e3510004 	cmp	r1, #4
     4e0:	03a01866 	moveq	r1, #6684672	; 0x660000
     4e4:	0a00000b 	beq	518 <hexDisp+0x200>
  else if (number==5) return 0b1101101;
     4e8:	e3510005 	cmp	r1, #5
     4ec:	03a0186d 	moveq	r1, #7143424	; 0x6d0000
     4f0:	0a000008 	beq	518 <hexDisp+0x200>
  else if (number==6) return 0b1111101;
     4f4:	e3510006 	cmp	r1, #6
     4f8:	03a0187d 	moveq	r1, #8192000	; 0x7d0000
     4fc:	0a000005 	beq	518 <hexDisp+0x200>
  else if (number==7) return 0b0000111;
     500:	e3510007 	cmp	r1, #7
     504:	03a01807 	moveq	r1, #458752	; 0x70000
     508:	0a000002 	beq	518 <hexDisp+0x200>
  else if (number==8) return 0b1111111;
     50c:	e3510008 	cmp	r1, #8
     510:	13a0186f 	movne	r1, #7274496	; 0x6f0000
     514:	03a0187f 	moveq	r1, #8323072	; 0x7f0000
	unsigned int sec=ind%60;
	unsigned int min=ind/60;	
	char HEX0 = sevenseg(sec%10);	
	char HEX1 = sevenseg(sec/10);	
	char HEX2 = sevenseg(min%10);
	*SEG0 = (HEX2 << 16) | (HEX1 << 8) | (HEX0);
     518:	e1832002 	orr	r2, r3, r2
     51c:	e3a00000 	mov	r0, #0
     520:	e1821001 	orr	r1, r2, r1
     524:	e34f0f20 	movt	r0, #65312	; 0xff20
     528:	e5801020 	str	r1, [r0, #32]

}
     52c:	e28dd00c 	add	sp, sp, #12
     530:	e8bd0070 	pop	{r4, r5, r6}
     534:	e12fff1e 	bx	lr

00000538 <showLED>:
void showLED(unsigned int value){// As bit values.
  int* led_ptr = (int *) 0xFF200000;			//led port address, 8bit unsigned
  *led_ptr = value;
     538:	e3a03000 	mov	r3, #0
     53c:	e34f3f20 	movt	r3, #65312	; 0xff20
     540:	e5830000 	str	r0, [r3]
     544:	e12fff1e 	bx	lr

00000548 <set_A9_IRQ_stack>:
  int stack, mode;
  stack = 0xFFFFFFFF-7;
  // top of A9 on-chip memory, aligned to 8 bytes
  /* change processor to IRQ mode with interrupts disabled */
  mode = 0b11010010;
  asm("msr cpsr, %[ps]" : : [ps] "r" (mode));
     548:	e3a030d2 	mov	r3, #210	; 0xd2
     54c:	e129f003 	msr	CPSR_fc, r3
  /* set banked stack pointer */
  asm("mov sp, %[ps]" : : [ps] "r" (stack));
     550:	e3e03007 	mvn	r3, #7
     554:	e1a0d003 	mov	sp, r3
  /* go back to SVC mode before executing subroutine return! */
  mode = 0b11010011;
  asm("msr cpsr, %[ps]" : : [ps] "r" (mode));
     558:	e3a030d3 	mov	r3, #211	; 0xd3
     55c:	e129f003 	msr	CPSR_fc, r3
     560:	e12fff1e 	bx	lr

00000564 <config_GIC>:
}
void config_GIC (void){
  /* configure the HPS timer interrupt */
  *((int *) 0xFFFED8C4) = 0x01000000;
     564:	e3e03a12 	mvn	r3, #73728	; 0x12000
     568:	e3a00401 	mov	r0, #16777216	; 0x1000000
     56c:	e503073b 	str	r0, [r3, #-1851]	; 0xfffff8c5
  *((int *) 0xFFFED118) = 0x00000080;
     570:	e3a00080 	mov	r0, #128	; 0x80
     574:	e5030ee7 	str	r0, [r3, #-3815]	; 0xfffff119
  /* configure the FPGA interval timer and KEYs interrupts */
  *((int *) 0xFFFED848) = 0x00000101;
     578:	e2800081 	add	r0, r0, #129	; 0x81
     57c:	e50307b7 	str	r0, [r3, #-1975]	; 0xfffff849
  *((int *) 0xFFFED108) = 0x00000300;
     580:	e3a00c03 	mov	r0, #768	; 0x300
     584:	e5030ef7 	str	r0, [r3, #-3831]	; 0xfffff109
  // Set Interrupt Priority Mask Register (ICCPMR). Enable interrupts of all priorities
  *((int *) 0xFFFEC104) = 0xFFFF;
     588:	e3e01a13 	mvn	r1, #77824	; 0x13000
  // Set CPU Interface Control Register (ICCICR). Enable signaling of interrupts
  *((int *) 0xFFFEC100) = 1;  // enable = 1
     58c:	e3a02001 	mov	r2, #1
  *((int *) 0xFFFED118) = 0x00000080;
  /* configure the FPGA interval timer and KEYs interrupts */
  *((int *) 0xFFFED848) = 0x00000101;
  *((int *) 0xFFFED108) = 0x00000300;
  // Set Interrupt Priority Mask Register (ICCPMR). Enable interrupts of all priorities
  *((int *) 0xFFFEC104) = 0xFFFF;
     590:	e30f0fff 	movw	r0, #65535	; 0xffff
     594:	e5010efb 	str	r0, [r1, #-3835]	; 0xfffff105
  // Set CPU Interface Control Register (ICCICR). Enable signaling of interrupts
  *((int *) 0xFFFEC100) = 1;  // enable = 1
     598:	e5012eff 	str	r2, [r1, #-3839]	; 0xfffff101
  // Configure the Distributor Control Register (ICDDCR) to send pending interrupts to CPUs
  *((int *) 0xFFFED000) = 1;  // enable = 1
     59c:	e5032fff 	str	r2, [r3, #-4095]	; 0xfffff001
     5a0:	e12fff1e 	bx	lr

000005a4 <config_interval_timer>:
  /* set the interval timer period for scrolling the HEX displays */
  //unsigned int counter = 10000000;  // .1 sec
  //int counter = 5000000;  // 1/(100 MHz) ×(5000000) = 50 msec
  
  //Default counter=0.125ms
  *(interval_timer_ptr) = 0b10;
     5a4:	e3a03a02 	mov	r3, #8192	; 0x2000
     5a8:	e3a02002 	mov	r2, #2
     5ac:	e34f3f20 	movt	r3, #65312	; 0xff20
     5b0:	e5832000 	str	r2, [r3]
  /*
  *(interval_timer_ptr + 0x2) = (counter & 0xFFFF);
  *(interval_timer_ptr + 0x3) = (counter >> 16) & 0xFFFF; */
  /* start interval timer, enable its interrupts */
  *(interval_timer_ptr + 1) = 0x7;  // STOP = 0, START = 1, CONT = 1, ITO = 1
     5b4:	e3a02007 	mov	r2, #7
     5b8:	e5832004 	str	r2, [r3, #4]
     5bc:	e12fff1e 	bx	lr

000005c0 <config_keys>:
}
void config_keys (void){
	volatile int *KEY_ptr=(int*)0xFF200050; 
	*(KEY_ptr+2) =0xF; 
     5c0:	e3a03000 	mov	r3, #0
     5c4:	e3a0200f 	mov	r2, #15
     5c8:	e34f3f20 	movt	r3, #65312	; 0xff20
     5cc:	e5832058 	str	r2, [r3, #88]	; 0x58
     5d0:	e12fff1e 	bx	lr

000005d4 <enable_A9_interrupts>:
}
void enable_A9_interrupts (void){
  int status = 0b01010011;
  asm("msr cpsr, %[ps]" : : [ps]"r"(status));
     5d4:	e3a03053 	mov	r3, #83	; 0x53
     5d8:	e129f003 	msr	CPSR_fc, r3
     5dc:	e12fff1e 	bx	lr

000005e0 <incrementLED>:
}
void incrementLED(){
int val = *LED_PTR;
     5e0:	e3a03000 	mov	r3, #0
     5e4:	e34f3f20 	movt	r3, #65312	; 0xff20
     5e8:	e5933000 	ldr	r3, [r3]
if (val==0b100000000) val=1;
     5ec:	e3530c01 	cmp	r3, #256	; 0x100
else val=val<<1;
     5f0:	11a02083 	lslne	r2, r3, #1
*LED_PTR = val;
     5f4:	e3a03000 	mov	r3, #0
  int status = 0b01010011;
  asm("msr cpsr, %[ps]" : : [ps]"r"(status));
}
void incrementLED(){
int val = *LED_PTR;
if (val==0b100000000) val=1;
     5f8:	03a02001 	moveq	r2, #1
else val=val<<1;
*LED_PTR = val;
     5fc:	e34f3f20 	movt	r3, #65312	; 0xff20
     600:	e5832000 	str	r2, [r3]
     604:	e12fff1e 	bx	lr

00000608 <interval_timer_ISR>:


void interval_timer_ISR (void){
  volatile int * interval_timer_ptr = (int *) 0xFF202000; // Altera timer address
  //*(interval_timer_ptr) = 0b10;  // clear the interrupt
  *(interval_timer_ptr) = 0;  // clear the interrupt  
     608:	e3a02a02 	mov	r2, #8192	; 0x2000
  if(songchanging) incrementLED();
     60c:	e3093fd8 	movw	r3, #40920	; 0x9fd8


void interval_timer_ISR (void){
  volatile int * interval_timer_ptr = (int *) 0xFF202000; // Altera timer address
  //*(interval_timer_ptr) = 0b10;  // clear the interrupt
  *(interval_timer_ptr) = 0;  // clear the interrupt  
     610:	e3a01000 	mov	r1, #0
     614:	e34f2f20 	movt	r2, #65312	; 0xff20
  if(songchanging) incrementLED();
     618:	e3403001 	movt	r3, #1


void interval_timer_ISR (void){
  volatile int * interval_timer_ptr = (int *) 0xFF202000; // Altera timer address
  //*(interval_timer_ptr) = 0b10;  // clear the interrupt
  *(interval_timer_ptr) = 0;  // clear the interrupt  
     61c:	e5821000 	str	r1, [r2]
  if(songchanging) incrementLED();
     620:	e5933000 	ldr	r3, [r3]
     624:	e1530001 	cmp	r3, r1
     628:	012fff1e 	bxeq	lr
void enable_A9_interrupts (void){
  int status = 0b01010011;
  asm("msr cpsr, %[ps]" : : [ps]"r"(status));
}
void incrementLED(){
int val = *LED_PTR;
     62c:	e1a03001 	mov	r3, r1
     630:	e34f3f20 	movt	r3, #65312	; 0xff20
     634:	e5933000 	ldr	r3, [r3]
if (val==0b100000000) val=1;
     638:	e3530c01 	cmp	r3, #256	; 0x100
else val=val<<1;
     63c:	11a02083 	lslne	r2, r3, #1
*LED_PTR = val;
     640:	e3a03000 	mov	r3, #0
  int status = 0b01010011;
  asm("msr cpsr, %[ps]" : : [ps]"r"(status));
}
void incrementLED(){
int val = *LED_PTR;
if (val==0b100000000) val=1;
     644:	03a02001 	moveq	r2, #1
else val=val<<1;
*LED_PTR = val;
     648:	e34f3f20 	movt	r3, #65312	; 0xff20
     64c:	e5832000 	str	r2, [r3]
     650:	e12fff1e 	bx	lr

00000654 <keys_ISR>:
  if(songchanging) incrementLED();
  return;
}
void keys_ISR(){
	int* button_addr = (int*) 0xFF200050;
	press=*(button_addr+3);
     654:	e3a02000 	mov	r2, #0
     658:	e30a39fc 	movw	r3, #43516	; 0xa9fc
     65c:	e34f2f20 	movt	r2, #65312	; 0xff20
     660:	e3403001 	movt	r3, #1
     664:	e592105c 	ldr	r1, [r2, #92]	; 0x5c
     668:	e583102c 	str	r1, [r3, #44]	; 0x2c
	*(button_addr+3)=0xFF;
     66c:	e3a010ff 	mov	r1, #255	; 0xff
     670:	e582105c 	str	r1, [r2, #92]	; 0x5c
	if (press & 0b1){//Volume + 
     674:	e593202c 	ldr	r2, [r3, #44]	; 0x2c
     678:	e3120001 	tst	r2, #1
     67c:	0a00000a 	beq	6ac <keys_ISR+0x58>
			if (volume <750) volume+=75;
     680:	e3092fd8 	movw	r2, #40920	; 0x9fd8
     684:	e30012ed 	movw	r1, #749	; 0x2ed
     688:	e3402001 	movt	r2, #1
     68c:	e5920004 	ldr	r0, [r2, #4]
     690:	e1500001 	cmp	r0, r1
     694:	d5921004 	ldrle	r1, [r2, #4]
     698:	d281104b 	addle	r1, r1, #75	; 0x4b
     69c:	d5821004 	strle	r1, [r2, #4]
			else{
				songnumber = SONG_NUM-1;
				songchanging=1;
			}
		}
		press=0;
     6a0:	e3a02000 	mov	r2, #0
     6a4:	e583202c 	str	r2, [r3, #44]	; 0x2c
     6a8:	e12fff1e 	bx	lr
	press=*(button_addr+3);
	*(button_addr+3)=0xFF;
	if (press & 0b1){//Volume + 
			if (volume <750) volume+=75;
		}
		else if(press & 0b10){//Volume -
     6ac:	e593202c 	ldr	r2, [r3, #44]	; 0x2c
     6b0:	e2122002 	ands	r2, r2, #2
     6b4:	0a000007 	beq	6d8 <keys_ISR+0x84>
			if (volume > 0) volume-=75;
     6b8:	e3092fd8 	movw	r2, #40920	; 0x9fd8
     6bc:	e3402001 	movt	r2, #1
     6c0:	e5921004 	ldr	r1, [r2, #4]
     6c4:	e3510000 	cmp	r1, #0
     6c8:	c5921004 	ldrgt	r1, [r2, #4]
     6cc:	c241104b 	subgt	r1, r1, #75	; 0x4b
     6d0:	c5821004 	strgt	r1, [r2, #4]
     6d4:	eafffff1 	b	6a0 <keys_ISR+0x4c>
		}
		else if(press & 0b100){ //next song
     6d8:	e593102c 	ldr	r1, [r3, #44]	; 0x2c
     6dc:	e3110004 	tst	r1, #4
     6e0:	0a00000a 	beq	710 <keys_ISR+0xbc>
			if(songnumber<SONG_NUM-1){
     6e4:	e5931030 	ldr	r1, [r3, #48]	; 0x30
     6e8:	e3510005 	cmp	r1, #5
     6ec:	ca000017 	bgt	750 <keys_ISR+0xfc>
				songnumber++;
     6f0:	e5931030 	ldr	r1, [r3, #48]	; 0x30
				songchanging=1;			
     6f4:	e3092fd8 	movw	r2, #40920	; 0x9fd8
     6f8:	e3402001 	movt	r2, #1
		else if(press & 0b10){//Volume -
			if (volume > 0) volume-=75;
		}
		else if(press & 0b100){ //next song
			if(songnumber<SONG_NUM-1){
				songnumber++;
     6fc:	e2811001 	add	r1, r1, #1
     700:	e5831030 	str	r1, [r3, #48]	; 0x30
				songchanging=1;			
     704:	e3a01001 	mov	r1, #1
     708:	e5821000 	str	r1, [r2]
     70c:	eaffffe3 	b	6a0 <keys_ISR+0x4c>
			else{
				songnumber = 0;
				songchanging=1;
			}
		}
		else if(press & 0b1000){ //prev song
     710:	e593202c 	ldr	r2, [r3, #44]	; 0x2c
     714:	e3120008 	tst	r2, #8
     718:	0affffe0 	beq	6a0 <keys_ISR+0x4c>
			if(songnumber > 0){
     71c:	e5932030 	ldr	r2, [r3, #48]	; 0x30
     720:	e3520000 	cmp	r2, #0
				songnumber--;
     724:	c5931030 	ldrgt	r1, [r3, #48]	; 0x30
				songchanging=1;			
     728:	c3092fd8 	movwgt	r2, #40920	; 0x9fd8
				}
			else{
				songnumber = SONG_NUM-1;
				songchanging=1;
     72c:	d3092fd8 	movwle	r2, #40920	; 0x9fd8
			if(songnumber > 0){
				songnumber--;
				songchanging=1;			
				}
			else{
				songnumber = SONG_NUM-1;
     730:	d3a01006 	movle	r1, #6
			}
		}
		else if(press & 0b1000){ //prev song
			if(songnumber > 0){
				songnumber--;
				songchanging=1;			
     734:	c3402001 	movtgt	r2, #1
				}
			else{
				songnumber = SONG_NUM-1;
				songchanging=1;
     738:	d3402001 	movtle	r2, #1
				songchanging=1;
			}
		}
		else if(press & 0b1000){ //prev song
			if(songnumber > 0){
				songnumber--;
     73c:	c2411001 	subgt	r1, r1, #1
				songchanging=1;			
				}
			else{
				songnumber = SONG_NUM-1;
     740:	e5831030 	str	r1, [r3, #48]	; 0x30
				songchanging=1;
     744:	e3a01001 	mov	r1, #1
     748:	e5821000 	str	r1, [r2]
     74c:	eaffffd3 	b	6a0 <keys_ISR+0x4c>
				songnumber++;
				songchanging=1;			
			}
			else{
				songnumber = 0;
				songchanging=1;
     750:	e3091fd8 	movw	r1, #40920	; 0x9fd8
			if(songnumber<SONG_NUM-1){
				songnumber++;
				songchanging=1;			
			}
			else{
				songnumber = 0;
     754:	e5832030 	str	r2, [r3, #48]	; 0x30
				songchanging=1;
     758:	e3401001 	movt	r1, #1
     75c:	e3a02001 	mov	r2, #1
     760:	e5812000 	str	r2, [r1]
     764:	eaffffcd 	b	6a0 <keys_ISR+0x4c>

00000768 <__cs3_isr_irq>:
		}
		press=0;
}

/* Define the IRQ exception handler */
void __attribute__ ((interrupt)) __cs3_isr_irq (void){
     768:	e24ee004 	sub	lr, lr, #4
     76c:	e92d503f 	push	{r0, r1, r2, r3, r4, r5, r12, lr}
  // Read the ICCIAR from the processor interface
  int int_ID = *((int *) 0xFFFEC10C);
     770:	e3e03a13 	mvn	r3, #77824	; 0x13000
     774:	e5134ef3 	ldr	r4, [r3, #-3827]	; 0xfffff10d
  if (int_ID == 72)    // check if interrupt is from the Altera timer
     778:	e3540048 	cmp	r4, #72	; 0x48
     77c:	0a000004 	beq	794 <__cs3_isr_irq+0x2c>
	interval_timer_ISR ();
  if (int_ID == 73)
     780:	e3540049 	cmp	r4, #73	; 0x49
     784:	0a000015 	beq	7e0 <__cs3_isr_irq+0x78>
	keys_ISR ();
  // Write to the End of Interrupt Register (ICCEOIR)
  *((int *) 0xFFFEC110) = int_ID;
     788:	e3e03a13 	mvn	r3, #77824	; 0x13000
     78c:	e5034eef 	str	r4, [r3, #-3823]	; 0xfffff111
     790:	e8fd903f 	ldm	sp!, {r0, r1, r2, r3, r4, r5, r12, pc}^


void interval_timer_ISR (void){
  volatile int * interval_timer_ptr = (int *) 0xFF202000; // Altera timer address
  //*(interval_timer_ptr) = 0b10;  // clear the interrupt
  *(interval_timer_ptr) = 0;  // clear the interrupt  
     794:	e3a02a02 	mov	r2, #8192	; 0x2000
  if(songchanging) incrementLED();
     798:	e3093fd8 	movw	r3, #40920	; 0x9fd8


void interval_timer_ISR (void){
  volatile int * interval_timer_ptr = (int *) 0xFF202000; // Altera timer address
  //*(interval_timer_ptr) = 0b10;  // clear the interrupt
  *(interval_timer_ptr) = 0;  // clear the interrupt  
     79c:	e3a01000 	mov	r1, #0
     7a0:	e34f2f20 	movt	r2, #65312	; 0xff20
  if(songchanging) incrementLED();
     7a4:	e3403001 	movt	r3, #1


void interval_timer_ISR (void){
  volatile int * interval_timer_ptr = (int *) 0xFF202000; // Altera timer address
  //*(interval_timer_ptr) = 0b10;  // clear the interrupt
  *(interval_timer_ptr) = 0;  // clear the interrupt  
     7a8:	e5821000 	str	r1, [r2]
  if(songchanging) incrementLED();
     7ac:	e5933000 	ldr	r3, [r3]
     7b0:	e1530001 	cmp	r3, r1
     7b4:	0afffff3 	beq	788 <__cs3_isr_irq+0x20>
void enable_A9_interrupts (void){
  int status = 0b01010011;
  asm("msr cpsr, %[ps]" : : [ps]"r"(status));
}
void incrementLED(){
int val = *LED_PTR;
     7b8:	e1a03001 	mov	r3, r1
     7bc:	e34f3f20 	movt	r3, #65312	; 0xff20
     7c0:	e5933000 	ldr	r3, [r3]
if (val==0b100000000) val=1;
     7c4:	e3530c01 	cmp	r3, #256	; 0x100
else val=val<<1;
     7c8:	11a02083 	lslne	r2, r3, #1
*LED_PTR = val;
     7cc:	e3a03000 	mov	r3, #0
  int status = 0b01010011;
  asm("msr cpsr, %[ps]" : : [ps]"r"(status));
}
void incrementLED(){
int val = *LED_PTR;
if (val==0b100000000) val=1;
     7d0:	03a02001 	moveq	r2, #1
else val=val<<1;
*LED_PTR = val;
     7d4:	e34f3f20 	movt	r3, #65312	; 0xff20
     7d8:	e5832000 	str	r2, [r3]
     7dc:	eaffffe9 	b	788 <__cs3_isr_irq+0x20>
  // Read the ICCIAR from the processor interface
  int int_ID = *((int *) 0xFFFEC10C);
  if (int_ID == 72)    // check if interrupt is from the Altera timer
	interval_timer_ISR ();
  if (int_ID == 73)
	keys_ISR ();
     7e0:	ebffff9b 	bl	654 <keys_ISR>
     7e4:	eaffffe7 	b	788 <__cs3_isr_irq+0x20>

000007e8 <__cs3_isr_undef>:
  // Write to the End of Interrupt Register (ICCEOIR)
  *((int *) 0xFFFEC110) = int_ID;
  return;
}
// Define the remaining exception handlers */
void __attribute__ ((interrupt)) __cs3_isr_undef (void){
     7e8:	eafffffe 	b	7e8 <__cs3_isr_undef>

000007ec <__cs3_isr_swi>:
while (1);
}
void __attribute__ ((interrupt)) __cs3_isr_swi (void){
     7ec:	eafffffe 	b	7ec <__cs3_isr_swi>

000007f0 <__cs3_isr_pabort>:
while (1);
}
void __attribute__ ((interrupt)) __cs3_isr_pabort (void){
     7f0:	eafffffe 	b	7f0 <__cs3_isr_pabort>

000007f4 <__cs3_isr_dabort>:
while (1);
}
void __attribute__ ((interrupt)) __cs3_isr_dabort (void){
     7f4:	eafffffe 	b	7f4 <__cs3_isr_dabort>

000007f8 <__cs3_isr_fiq>:
while (1);
}
void __attribute__ ((interrupt)) __cs3_isr_fiq (void){
     7f8:	eafffffe 	b	7f8 <__cs3_isr_fiq>

000007fc <initilize>:
	alt_sdmmc_read(&Card_Info, buffer, (void*)(sector*FAT_SECTOR_SIZE), FAT_SECTOR_SIZE*sector_count);
	return 1;
}

void initilize(void)
{	
     7fc:	e92d4010 	push	{r4, lr}
  int stack, mode;
  stack = 0xFFFFFFFF-7;
  // top of A9 on-chip memory, aligned to 8 bytes
  /* change processor to IRQ mode with interrupts disabled */
  mode = 0b11010010;
  asm("msr cpsr, %[ps]" : : [ps] "r" (mode));
     800:	e3a030d2 	mov	r3, #210	; 0xd2
     804:	e129f003 	msr	CPSR_fc, r3
  /* set banked stack pointer */
  asm("mov sp, %[ps]" : : [ps] "r" (stack));
     808:	e3e03007 	mvn	r3, #7
     80c:	e1a0d003 	mov	sp, r3
  /* go back to SVC mode before executing subroutine return! */
  mode = 0b11010011;
  asm("msr cpsr, %[ps]" : : [ps] "r" (mode));
     810:	e3a030d3 	mov	r3, #211	; 0xd3
     814:	e129f003 	msr	CPSR_fc, r3
}
void config_GIC (void){
  /* configure the HPS timer interrupt */
  *((int *) 0xFFFED8C4) = 0x01000000;
     818:	e3e03a12 	mvn	r3, #73728	; 0x12000
     81c:	e3a0e401 	mov	lr, #16777216	; 0x1000000
     820:	e503e73b 	str	lr, [r3, #-1851]	; 0xfffff8c5
  *((int *) 0xFFFED118) = 0x00000080;
     824:	e3a0e080 	mov	lr, #128	; 0x80
     828:	e503eee7 	str	lr, [r3, #-3815]	; 0xfffff119
  /* configure the FPGA interval timer and KEYs interrupts */
  *((int *) 0xFFFED848) = 0x00000101;
     82c:	e28ee081 	add	lr, lr, #129	; 0x81
     830:	e503e7b7 	str	lr, [r3, #-1975]	; 0xfffff849
  *((int *) 0xFFFED108) = 0x00000300;
     834:	e3a0ec03 	mov	lr, #768	; 0x300
     838:	e503eef7 	str	lr, [r3, #-3831]	; 0xfffff109
  // Set Interrupt Priority Mask Register (ICCPMR). Enable interrupts of all priorities
  *((int *) 0xFFFEC104) = 0xFFFF;
     83c:	e3e0ca13 	mvn	r12, #77824	; 0x13000
  // Set CPU Interface Control Register (ICCICR). Enable signaling of interrupts
  *((int *) 0xFFFEC100) = 1;  // enable = 1
     840:	e3a00001 	mov	r0, #1
  *((int *) 0xFFFED118) = 0x00000080;
  /* configure the FPGA interval timer and KEYs interrupts */
  *((int *) 0xFFFED848) = 0x00000101;
  *((int *) 0xFFFED108) = 0x00000300;
  // Set Interrupt Priority Mask Register (ICCPMR). Enable interrupts of all priorities
  *((int *) 0xFFFEC104) = 0xFFFF;
     844:	e30fefff 	movw	lr, #65535	; 0xffff
  /* set the interval timer period for scrolling the HEX displays */
  //unsigned int counter = 10000000;  // .1 sec
  //int counter = 5000000;  // 1/(100 MHz) ×(5000000) = 50 msec
  
  //Default counter=0.125ms
  *(interval_timer_ptr) = 0b10;
     848:	e3a02a02 	mov	r2, #8192	; 0x2000
  *((int *) 0xFFFED118) = 0x00000080;
  /* configure the FPGA interval timer and KEYs interrupts */
  *((int *) 0xFFFED848) = 0x00000101;
  *((int *) 0xFFFED108) = 0x00000300;
  // Set Interrupt Priority Mask Register (ICCPMR). Enable interrupts of all priorities
  *((int *) 0xFFFEC104) = 0xFFFF;
     84c:	e50ceefb 	str	lr, [r12, #-3835]	; 0xfffff105
  // Set CPU Interface Control Register (ICCICR). Enable signaling of interrupts
  *((int *) 0xFFFEC100) = 1;  // enable = 1
     850:	e50c0eff 	str	r0, [r12, #-3839]	; 0xfffff101
  /* set the interval timer period for scrolling the HEX displays */
  //unsigned int counter = 10000000;  // .1 sec
  //int counter = 5000000;  // 1/(100 MHz) ×(5000000) = 50 msec
  
  //Default counter=0.125ms
  *(interval_timer_ptr) = 0b10;
     854:	e34f2f20 	movt	r2, #65312	; 0xff20
  // Set Interrupt Priority Mask Register (ICCPMR). Enable interrupts of all priorities
  *((int *) 0xFFFEC104) = 0xFFFF;
  // Set CPU Interface Control Register (ICCICR). Enable signaling of interrupts
  *((int *) 0xFFFEC100) = 1;  // enable = 1
  // Configure the Distributor Control Register (ICDDCR) to send pending interrupts to CPUs
  *((int *) 0xFFFED000) = 1;  // enable = 1
     858:	e5030fff 	str	r0, [r3, #-4095]	; 0xfffff001
  /* set the interval timer period for scrolling the HEX displays */
  //unsigned int counter = 10000000;  // .1 sec
  //int counter = 5000000;  // 1/(100 MHz) ×(5000000) = 50 msec
  
  //Default counter=0.125ms
  *(interval_timer_ptr) = 0b10;
     85c:	e3a03002 	mov	r3, #2
     860:	e5823000 	str	r3, [r2]
  /* start interval timer, enable its interrupts */
  *(interval_timer_ptr + 1) = 0x7;  // STOP = 0, START = 1, CONT = 1, ITO = 1
}
void config_keys (void){
	volatile int *KEY_ptr=(int*)0xFF200050; 
	*(KEY_ptr+2) =0xF; 
     864:	e3a01000 	mov	r1, #0
  *(interval_timer_ptr) = 0b10;
  /*
  *(interval_timer_ptr + 0x2) = (counter & 0xFFFF);
  *(interval_timer_ptr + 0x3) = (counter >> 16) & 0xFFFF; */
  /* start interval timer, enable its interrupts */
  *(interval_timer_ptr + 1) = 0x7;  // STOP = 0, START = 1, CONT = 1, ITO = 1
     868:	e3a03007 	mov	r3, #7
}
void config_keys (void){
	volatile int *KEY_ptr=(int*)0xFF200050; 
	*(KEY_ptr+2) =0xF; 
     86c:	e34f1f20 	movt	r1, #65312	; 0xff20
  *(interval_timer_ptr) = 0b10;
  /*
  *(interval_timer_ptr + 0x2) = (counter & 0xFFFF);
  *(interval_timer_ptr + 0x3) = (counter >> 16) & 0xFFFF; */
  /* start interval timer, enable its interrupts */
  *(interval_timer_ptr + 1) = 0x7;  // STOP = 0, START = 1, CONT = 1, ITO = 1
     870:	e5823004 	str	r3, [r2, #4]
}
void config_keys (void){
	volatile int *KEY_ptr=(int*)0xFF200050; 
	*(KEY_ptr+2) =0xF; 
     874:	e3a0300f 	mov	r3, #15
     878:	e5813058 	str	r3, [r1, #88]	; 0x58
}
void enable_A9_interrupts (void){
  int status = 0b01010011;
  asm("msr cpsr, %[ps]" : : [ps]"r"(status));
     87c:	e3a03053 	mov	r3, #83	; 0x53
     880:	e129f003 	msr	CPSR_fc, r3
	set_A9_IRQ_stack ();  // initialize the stack pointer for IRQ mode
	config_GIC ();        // configure the general interrupt controller
	config_interval_timer (); // configure Altera interval timer to generate interrupts
	config_keys();			  // configure keys to generate interrupts
	enable_A9_interrupts ();	
	*LED_PTR=1;		
     884:	e3a03000 	mov	r3, #0
     888:	e3a02001 	mov	r2, #1
     88c:	e34f3f20 	movt	r3, #65312	; 0xff20
	alt_sdmmc_init();
	alt_sdmmc_card_pwr_on();
	alt_sdmmc_card_identify(&Card_Info); // Card_Info.card_type == ALT_SDMMC_CARD_TYPE_SDHC
     890:	e30a49fc 	movw	r4, #43516	; 0xa9fc
	set_A9_IRQ_stack ();  // initialize the stack pointer for IRQ mode
	config_GIC ();        // configure the general interrupt controller
	config_interval_timer (); // configure Altera interval timer to generate interrupts
	config_keys();			  // configure keys to generate interrupts
	enable_A9_interrupts ();	
	*LED_PTR=1;		
     894:	e5832000 	str	r2, [r3]
	alt_sdmmc_init();
	alt_sdmmc_card_pwr_on();
	alt_sdmmc_card_identify(&Card_Info); // Card_Info.card_type == ALT_SDMMC_CARD_TYPE_SDHC
     898:	e3404001 	movt	r4, #1
	config_GIC ();        // configure the general interrupt controller
	config_interval_timer (); // configure Altera interval timer to generate interrupts
	config_keys();			  // configure keys to generate interrupts
	enable_A9_interrupts ();	
	*LED_PTR=1;		
	alt_sdmmc_init();
     89c:	eb0013d5 	bl	57f8 <alt_sdmmc_init>
	alt_sdmmc_card_pwr_on();
     8a0:	eb00104f 	bl	49e4 <alt_sdmmc_card_pwr_on>
	alt_sdmmc_card_identify(&Card_Info); // Card_Info.card_type == ALT_SDMMC_CARD_TYPE_SDHC
     8a4:	e1a00004 	mov	r0, r4
     8a8:	eb001702 	bl	64b8 <alt_sdmmc_card_identify>
	alt_sdmmc_card_bus_width_set(&Card_Info, ALT_SDMMC_BUS_WIDTH_4);
     8ac:	e1a00004 	mov	r0, r4
     8b0:	e3a01004 	mov	r1, #4
     8b4:	eb001324 	bl	554c <alt_sdmmc_card_bus_width_set>
	//alt_sdmmc_fifo_param_set((ALT_SDMMC_FIFO_NUM_ENTRIES >> 3) - 1, (ALT_SDMMC_FIFO_NUM_ENTRIES >> 3), ALT_SDMMC_MULT_TRANS_TXMSIZE1);
	*FIFOTH = ((0x200 << 16) + (0x200));
	alt_sdmmc_card_speed_set(&Card_Info, 2 * Card_Info.xfer_speed);
     8b8:	e5941008 	ldr	r1, [r4, #8]
	alt_sdmmc_init();
	alt_sdmmc_card_pwr_on();
	alt_sdmmc_card_identify(&Card_Info); // Card_Info.card_type == ALT_SDMMC_CARD_TYPE_SDHC
	alt_sdmmc_card_bus_width_set(&Card_Info, ALT_SDMMC_BUS_WIDTH_4);
	//alt_sdmmc_fifo_param_set((ALT_SDMMC_FIFO_NUM_ENTRIES >> 3) - 1, (ALT_SDMMC_FIFO_NUM_ENTRIES >> 3), ALT_SDMMC_MULT_TRANS_TXMSIZE1);
	*FIFOTH = ((0x200 << 16) + (0x200));
     8bc:	e3042fff 	movw	r2, #20479	; 0x4fff
     8c0:	e3a03c02 	mov	r3, #512	; 0x200
     8c4:	e34f2f70 	movt	r2, #65392	; 0xff70
     8c8:	e7df3813 	bfi	r3, r3, #16, #16
	alt_sdmmc_card_speed_set(&Card_Info, 2 * Card_Info.xfer_speed);
     8cc:	e1a00004 	mov	r0, r4
	alt_sdmmc_init();
	alt_sdmmc_card_pwr_on();
	alt_sdmmc_card_identify(&Card_Info); // Card_Info.card_type == ALT_SDMMC_CARD_TYPE_SDHC
	alt_sdmmc_card_bus_width_set(&Card_Info, ALT_SDMMC_BUS_WIDTH_4);
	//alt_sdmmc_fifo_param_set((ALT_SDMMC_FIFO_NUM_ENTRIES >> 3) - 1, (ALT_SDMMC_FIFO_NUM_ENTRIES >> 3), ALT_SDMMC_MULT_TRANS_TXMSIZE1);
	*FIFOTH = ((0x200 << 16) + (0x200));
     8d0:	e5023fb3 	str	r3, [r2, #-4019]	; 0xfffff04d
	alt_sdmmc_card_speed_set(&Card_Info, 2 * Card_Info.xfer_speed);
     8d4:	e1a01081 	lsl	r1, r1, #1
     8d8:	eb0017a3 	bl	676c <alt_sdmmc_card_speed_set>
	fl_init();	
     8dc:	eb0044e9 	bl	11c88 <fl_init>
	// Attach media access functions to library
	fl_attach_media(read, NULL);
     8e0:	e300025c 	movw	r0, #604	; 0x25c
     8e4:	e3a01000 	mov	r1, #0
     8e8:	e3400000 	movt	r0, #0
}
     8ec:	e8bd4010 	pop	{r4, lr}
	//alt_sdmmc_fifo_param_set((ALT_SDMMC_FIFO_NUM_ENTRIES >> 3) - 1, (ALT_SDMMC_FIFO_NUM_ENTRIES >> 3), ALT_SDMMC_MULT_TRANS_TXMSIZE1);
	*FIFOTH = ((0x200 << 16) + (0x200));
	alt_sdmmc_card_speed_set(&Card_Info, 2 * Card_Info.xfer_speed);
	fl_init();	
	// Attach media access functions to library
	fl_attach_media(read, NULL);
     8f0:	ea004506 	b	11d10 <fl_attach_media>

000008f4 <print_debug>:
}

//Required by alt_sdmmc.h
int print_debug(const char* fmt, ...){
     8f4:	e92d000f 	push	{r0, r1, r2, r3}
	return 127;
}
     8f8:	e3a0007f 	mov	r0, #127	; 0x7f
     8fc:	e28dd010 	add	sp, sp, #16
     900:	e12fff1e 	bx	lr

00000904 <changesong>:
void changesong(short* musicptr,int songnumber,unsigned int* buffer_index,unsigned int* size){
	
	*buffer_index=0;
	FL_FILE* file;
	
	if(songnumber==0){
     904:	e3510000 	cmp	r1, #0

//Required by alt_sdmmc.h
int print_debug(const char* fmt, ...){
	return 127;
}
void changesong(short* musicptr,int songnumber,unsigned int* buffer_index,unsigned int* size){
     908:	e92d4070 	push	{r4, r5, r6, lr}
     90c:	e1a05003 	mov	r5, r3
	
	*buffer_index=0;
     910:	e3a03000 	mov	r3, #0

//Required by alt_sdmmc.h
int print_debug(const char* fmt, ...){
	return 127;
}
void changesong(short* musicptr,int songnumber,unsigned int* buffer_index,unsigned int* size){
     914:	e1a06000 	mov	r6, r0
	
	*buffer_index=0;
     918:	e5823000 	str	r3, [r2]
	FL_FILE* file;
	
	if(songnumber==0){
     91c:	0a000023 	beq	9b0 <changesong+0xac>
		file = fl_fopen("/stir.bin", "rb");
	}
	else if(songnumber==1){			
     920:	e3510001 	cmp	r1, #1
     924:	0a00002f 	beq	9e8 <changesong+0xe4>
		file = fl_fopen("/master.bin", "rb");
	}
	else if(songnumber==2){			
     928:	e3510002 	cmp	r1, #2
     92c:	0a000034 	beq	a04 <changesong+0x100>
		file = fl_fopen("/jazz.bin", "rb");
	}
	else if(songnumber==3){			
     930:	e3510003 	cmp	r1, #3
     934:	0a000039 	beq	a20 <changesong+0x11c>
		file = fl_fopen("/unforgiven.bin", "rb");
	}
	else if(songnumber==4){			
     938:	e3510004 	cmp	r1, #4
     93c:	0a00003e 	beq	a3c <changesong+0x138>
		file = fl_fopen("/ciao.bin", "rb");
	}
	else if(songnumber==5){			
     940:	e3510005 	cmp	r1, #5
     944:	0a000043 	beq	a58 <changesong+0x154>
		file = fl_fopen("/mesafe.bin", "rb");
	}
	else if(songnumber==6){			
     948:	e3510006 	cmp	r1, #6
     94c:	0a00001e 	beq	9cc <changesong+0xc8>
		file = fl_fopen("/klasik.bin", "rb");
	}
	
	
	fl_fseek(file, 0, SEEK_END); // seek to end of file
     950:	e3a01000 	mov	r1, #0
     954:	e3a02002 	mov	r2, #2
     958:	e1a00004 	mov	r0, r4
     95c:	eb0047ab 	bl	12810 <fl_fseek>
	*size = fl_ftell(file); // get current file pointer		
     960:	e1a00004 	mov	r0, r4
     964:	eb00481c 	bl	129dc <fl_ftell>
	fl_fseek(file, 0, SEEK_SET);
     968:	e3a01000 	mov	r1, #0
		file = fl_fopen("/klasik.bin", "rb");
	}
	
	
	fl_fseek(file, 0, SEEK_END); // seek to end of file
	*size = fl_ftell(file); // get current file pointer		
     96c:	e5850000 	str	r0, [r5]
	fl_fseek(file, 0, SEEK_SET);
     970:	e1a02001 	mov	r2, r1
     974:	e1a00004 	mov	r0, r4
     978:	eb0047a4 	bl	12810 <fl_fseek>
	fl_fread(musicptr, 2, ((*size)/2), file);	
     97c:	e5952000 	ldr	r2, [r5]
     980:	e1a03004 	mov	r3, r4
     984:	e3a01002 	mov	r1, #2
     988:	e1a00006 	mov	r0, r6
     98c:	e1a020a2 	lsr	r2, r2, #1
     990:	eb0046c4 	bl	124a8 <fl_fread>
	fl_fclose(file);
     994:	e1a00004 	mov	r0, r4
     998:	eb00462d 	bl	12254 <fl_fclose>
	songchanging=0;	
     99c:	e3093fd8 	movw	r3, #40920	; 0x9fd8
     9a0:	e3a02000 	mov	r2, #0
     9a4:	e3403001 	movt	r3, #1
     9a8:	e5832000 	str	r2, [r3]
     9ac:	e8bd8070 	pop	{r4, r5, r6, pc}
	
	*buffer_index=0;
	FL_FILE* file;
	
	if(songnumber==0){
		file = fl_fopen("/stir.bin", "rb");
     9b0:	e3090a58 	movw	r0, #39512	; 0x9a58
     9b4:	e3091a64 	movw	r1, #39524	; 0x9a64
     9b8:	e3400001 	movt	r0, #1
     9bc:	e3401001 	movt	r1, #1
     9c0:	eb004529 	bl	11e6c <fl_fopen>
     9c4:	e1a04000 	mov	r4, r0
     9c8:	eaffffe0 	b	950 <changesong+0x4c>
	}
	else if(songnumber==5){			
		file = fl_fopen("/mesafe.bin", "rb");
	}
	else if(songnumber==6){			
		file = fl_fopen("/klasik.bin", "rb");
     9cc:	e3090aa8 	movw	r0, #39592	; 0x9aa8
     9d0:	e3091a64 	movw	r1, #39524	; 0x9a64
     9d4:	e3400001 	movt	r0, #1
     9d8:	e3401001 	movt	r1, #1
     9dc:	eb004522 	bl	11e6c <fl_fopen>
     9e0:	e1a04000 	mov	r4, r0
     9e4:	eaffffd9 	b	950 <changesong+0x4c>
	
	if(songnumber==0){
		file = fl_fopen("/stir.bin", "rb");
	}
	else if(songnumber==1){			
		file = fl_fopen("/master.bin", "rb");
     9e8:	e3090a68 	movw	r0, #39528	; 0x9a68
     9ec:	e3091a64 	movw	r1, #39524	; 0x9a64
     9f0:	e3400001 	movt	r0, #1
     9f4:	e3401001 	movt	r1, #1
     9f8:	eb00451b 	bl	11e6c <fl_fopen>
     9fc:	e1a04000 	mov	r4, r0
     a00:	eaffffd2 	b	950 <changesong+0x4c>
	}
	else if(songnumber==2){			
		file = fl_fopen("/jazz.bin", "rb");
     a04:	e3090a74 	movw	r0, #39540	; 0x9a74
     a08:	e3091a64 	movw	r1, #39524	; 0x9a64
     a0c:	e3400001 	movt	r0, #1
     a10:	e3401001 	movt	r1, #1
     a14:	eb004514 	bl	11e6c <fl_fopen>
     a18:	e1a04000 	mov	r4, r0
     a1c:	eaffffcb 	b	950 <changesong+0x4c>
	}
	else if(songnumber==3){			
		file = fl_fopen("/unforgiven.bin", "rb");
     a20:	e3090a80 	movw	r0, #39552	; 0x9a80
     a24:	e3091a64 	movw	r1, #39524	; 0x9a64
     a28:	e3400001 	movt	r0, #1
     a2c:	e3401001 	movt	r1, #1
     a30:	eb00450d 	bl	11e6c <fl_fopen>
     a34:	e1a04000 	mov	r4, r0
     a38:	eaffffc4 	b	950 <changesong+0x4c>
	}
	else if(songnumber==4){			
		file = fl_fopen("/ciao.bin", "rb");
     a3c:	e3090a90 	movw	r0, #39568	; 0x9a90
     a40:	e3091a64 	movw	r1, #39524	; 0x9a64
     a44:	e3400001 	movt	r0, #1
     a48:	e3401001 	movt	r1, #1
     a4c:	eb004506 	bl	11e6c <fl_fopen>
     a50:	e1a04000 	mov	r4, r0
     a54:	eaffffbd 	b	950 <changesong+0x4c>
	}
	else if(songnumber==5){			
		file = fl_fopen("/mesafe.bin", "rb");
     a58:	e3090a9c 	movw	r0, #39580	; 0x9a9c
     a5c:	e3091a64 	movw	r1, #39524	; 0x9a64
     a60:	e3400001 	movt	r0, #1
     a64:	e3401001 	movt	r1, #1
     a68:	eb0044ff 	bl	11e6c <fl_fopen>
     a6c:	e1a04000 	mov	r4, r0
     a70:	eaffffb6 	b	950 <changesong+0x4c>

00000a74 <main>:

/********************************************************************************
* Main program
********************************************************************************/
void main(void)
{
     a74:	e92d4ff0 	push	{r4, r5, r6, r7, r8, r9, r10, r11, lr}
     a78:	e24dd01c 	sub	sp, sp, #28
	initilize();
     a7c:	ebffff5e 	bl	7fc <initilize>
	
	//Allocating Space in ram to write songs
	short* musicptr = (short *) malloc(MAX_FILE_SIZE);
     a80:	e3090e10 	movw	r0, #40464	; 0x9e10
	unsigned int size=0;
	unsigned int buffer_index = 0;	
	
	changesong(musicptr,songnumber,&buffer_index,&size);
     a84:	e30a99fc 	movw	r9, #43516	; 0xa9fc
void main(void)
{
	initilize();
	
	//Allocating Space in ram to write songs
	short* musicptr = (short *) malloc(MAX_FILE_SIZE);
     a88:	e3400354 	movt	r0, #852	; 0x354
	unsigned int size=0;
	unsigned int buffer_index = 0;	
	
	changesong(musicptr,songnumber,&buffer_index,&size);
     a8c:	e3409001 	movt	r9, #1
void main(void)
{
	initilize();
	
	//Allocating Space in ram to write songs
	short* musicptr = (short *) malloc(MAX_FILE_SIZE);
     a90:	eb005e47 	bl	183b4 <malloc>
	
	changesong(musicptr,songnumber,&buffer_index,&size);
	
	volatile int * audio_ptr = (int *) 0xFF203040; 	// audio port address = 0xFF203040
	volatile int fifospace;
	fifospace = *(audio_ptr + 1);    //One register to rule them all. SUPER DUPER important.
     a94:	e3034fff 	movw	r4, #16383	; 0x3fff
{
	initilize();
	
	//Allocating Space in ram to write songs
	short* musicptr = (short *) malloc(MAX_FILE_SIZE);
	unsigned int size=0;
     a98:	e3a0c000 	mov	r12, #0
	unsigned int buffer_index = 0;	
     a9c:	e28d2018 	add	r2, sp, #24
	
	changesong(musicptr,songnumber,&buffer_index,&size);
     aa0:	e28d3008 	add	r3, sp, #8
	initilize();
	
	//Allocating Space in ram to write songs
	short* musicptr = (short *) malloc(MAX_FILE_SIZE);
	unsigned int size=0;
	unsigned int buffer_index = 0;	
     aa4:	e522c00c 	str	r12, [r2, #-12]!
	
	changesong(musicptr,songnumber,&buffer_index,&size);
	
	volatile int * audio_ptr = (int *) 0xFF203040; 	// audio port address = 0xFF203040
	volatile int fifospace;
	fifospace = *(audio_ptr + 1);    //One register to rule them all. SUPER DUPER important.
     aa8:	e34f4f20 	movt	r4, #65312	; 0xff20
	//Allocating Space in ram to write songs
	short* musicptr = (short *) malloc(MAX_FILE_SIZE);
	unsigned int size=0;
	unsigned int buffer_index = 0;	
	
	changesong(musicptr,songnumber,&buffer_index,&size);
     aac:	e5991030 	ldr	r1, [r9, #48]	; 0x30
void main(void)
{
	initilize();
	
	//Allocating Space in ram to write songs
	short* musicptr = (short *) malloc(MAX_FILE_SIZE);
     ab0:	e1a07000 	mov	r7, r0
	unsigned int size=0;
	unsigned int buffer_index = 0;	
     ab4:	e58d2004 	str	r2, [sp, #4]
     ab8:	e3096fd8 	movw	r6, #40920	; 0x9fd8
{
	initilize();
	
	//Allocating Space in ram to write songs
	short* musicptr = (short *) malloc(MAX_FILE_SIZE);
	unsigned int size=0;
     abc:	e58dc008 	str	r12, [sp, #8]
  else if (number==9) return 0b1101111;
  else return 0b1111110;
}
void hexDisp(volatile int ind){
		
	ind=ind/48000;
     ac0:	e301b9f1 	movw	r11, #6641	; 0x19f1
	//Allocating Space in ram to write songs
	short* musicptr = (short *) malloc(MAX_FILE_SIZE);
	unsigned int size=0;
	unsigned int buffer_index = 0;	
	
	changesong(musicptr,songnumber,&buffer_index,&size);
     ac4:	ebffff8e 	bl	904 <changesong>
}
void hexDisp(volatile int ind){
		
	ind=ind/48000;
	
	unsigned int sec=ind%60;
     ac8:	e308a889 	movw	r10, #34953	; 0x8889
	
	changesong(musicptr,songnumber,&buffer_index,&size);
	
	volatile int * audio_ptr = (int *) 0xFF203040; 	// audio port address = 0xFF203040
	volatile int fifospace;
	fifospace = *(audio_ptr + 1);    //One register to rule them all. SUPER DUPER important.
     acc:	e5143fbb 	ldr	r3, [r4, #-4027]	; 0xfffff045
		
	ind=ind/48000;
	
	unsigned int sec=ind%60;
	unsigned int min=ind/60;	
	char HEX0 = sevenseg(sec%10);	
     ad0:	e30c8ccd 	movw	r8, #52429	; 0xcccd
	char HEX1 = sevenseg(sec/10);	
	char HEX2 = sevenseg(min%10);
	*SEG0 = (HEX2 << 16) | (HEX1 << 8) | (HEX0);
     ad4:	e3a05000 	mov	r5, #0
     ad8:	e3406001 	movt	r6, #1
  else if (number==9) return 0b1101111;
  else return 0b1111110;
}
void hexDisp(volatile int ind){
		
	ind=ind/48000;
     adc:	e340b576 	movt	r11, #1398	; 0x576
	
	unsigned int sec=ind%60;
     ae0:	e348a888 	movt	r10, #34952	; 0x8888
	unsigned int min=ind/60;	
	char HEX0 = sevenseg(sec%10);	
     ae4:	e34c8ccc 	movt	r8, #52428	; 0xcccc
	char HEX1 = sevenseg(sec/10);	
	char HEX2 = sevenseg(min%10);
	*SEG0 = (HEX2 << 16) | (HEX1 << 8) | (HEX0);
     ae8:	e34f5f20 	movt	r5, #65312	; 0xff20
	
	changesong(musicptr,songnumber,&buffer_index,&size);
	
	volatile int * audio_ptr = (int *) 0xFF203040; 	// audio port address = 0xFF203040
	volatile int fifospace;
	fifospace = *(audio_ptr + 1);    //One register to rule them all. SUPER DUPER important.
     aec:	e58d3010 	str	r3, [sp, #16]
     af0:	e59d300c 	ldr	r3, [sp, #12]
	// read the audio port fifospace register, 0xFF203040 [WSLC WSRC RALC RARC]
	while(1){
		fifospace = *(audio_ptr + 1);
     af4:	e5142fbb 	ldr	r2, [r4, #-4027]	; 0xfffff045
     af8:	e58d2010 	str	r2, [sp, #16]
		if ( (fifospace & 0xFF000000) > 0x20000000) // check WSLC, for more than %25 writable 0x 0011 1111
     afc:	e59d2010 	ldr	r2, [sp, #16]
     b00:	e20224ff 	and	r2, r2, #-16777216	; 0xff000000
     b04:	e3520202 	cmp	r2, #536870912	; 0x20000000
     b08:	9a000017 	bls	b6c <main+0xf8>
		{
				/* insert data until the audio-out FIFO is full, or the data is depleted. */
			while ( (fifospace & 0xFF000000)  && (buffer_index < size) )
     b0c:	e59d2010 	ldr	r2, [sp, #16]
     b10:	e31204ff 	tst	r2, #-16777216	; 0xff000000
     b14:	0a000014 	beq	b6c <main+0xf8>
     b18:	e59d2008 	ldr	r2, [sp, #8]
     b1c:	e1530002 	cmp	r3, r2
     b20:	3a000003 	bcc	b34 <main+0xc0>
     b24:	ea000010 	b	b6c <main+0xf8>
     b28:	e59d2008 	ldr	r2, [sp, #8]
     b2c:	e1520003 	cmp	r2, r3
     b30:	9a00000d 	bls	b6c <main+0xf8>
			{
				int * addr = (int *) 0xFF203040;
				addr = addr +2;
				int temp = (musicptr[buffer_index] * volume);
     b34:	e1a03083 	lsl	r3, r3, #1
     b38:	e5962004 	ldr	r2, [r6, #4]
     b3c:	e19730f3 	ldrsh	r3, [r7, r3]
     b40:	e0030392 	mul	r3, r2, r3
				
				*addr = temp ; //Leftdata
     b44:	e5043fb7 	str	r3, [r4, #-4023]	; 0xfffff049
				addr = addr+1;
				*addr =  temp ; //Rightdata
     b48:	e5043fb3 	str	r3, [r4, #-4019]	; 0xfffff04d
				++buffer_index;						//Increment buffer index
     b4c:	e59d300c 	ldr	r3, [sp, #12]
     b50:	e2833001 	add	r3, r3, #1
     b54:	e58d300c 	str	r3, [sp, #12]
				fifospace = *(audio_ptr + 1); // read the audio port fifospace register
     b58:	e5142fbb 	ldr	r2, [r4, #-4027]	; 0xfffff045
     b5c:	e58d2010 	str	r2, [sp, #16]
	while(1){
		fifospace = *(audio_ptr + 1);
		if ( (fifospace & 0xFF000000) > 0x20000000) // check WSLC, for more than %25 writable 0x 0011 1111
		{
				/* insert data until the audio-out FIFO is full, or the data is depleted. */
			while ( (fifospace & 0xFF000000)  && (buffer_index < size) )
     b60:	e59d2010 	ldr	r2, [sp, #16]
     b64:	e31204ff 	tst	r2, #-16777216	; 0xff000000
     b68:	1affffee 	bne	b28 <main+0xb4>
  else if (number==9) return 0b1101111;
  else return 0b1111110;
}
void hexDisp(volatile int ind){
		
	ind=ind/48000;
     b6c:	e0c2c39b 	smull	r12, r2, r11, r3
     b70:	e1a03fc3 	asr	r3, r3, #31
     b74:	e0633542 	rsb	r3, r3, r2, asr #10
	
	unsigned int sec=ind%60;
     b78:	e0c2039a 	smull	r0, r2, r10, r3
     b7c:	e1a01fc3 	asr	r1, r3, #31
     b80:	e0822003 	add	r2, r2, r3
     b84:	e06122c2 	rsb	r2, r1, r2, asr #5
     b88:	e1a01002 	mov	r1, r2
     b8c:	e0622202 	rsb	r2, r2, r2, lsl #4
     b90:	e0432102 	sub	r2, r3, r2, lsl #2
	unsigned int min=ind/60;	
	char HEX0 = sevenseg(sec%10);	
     b94:	e083c298 	umull	r12, r3, r8, r2
     b98:	e1a031a3 	lsr	r3, r3, #3
     b9c:	e0833103 	add	r3, r3, r3, lsl #2
     ba0:	e0423083 	sub	r3, r2, r3, lsl #1
     ba4:	e6ff3073 	uxth	r3, r3
extern volatile int volume;
extern volatile int songnumber;


char sevenseg(short number){
  if      (number==0) return 0b0111111;
     ba8:	e3530000 	cmp	r3, #0
     bac:	03a0003f 	moveq	r0, #63	; 0x3f
     bb0:	0a000018 	beq	c18 <main+0x1a4>
  else if (number==1) return 0b0000110;
     bb4:	e6bf3073 	sxth	r3, r3
     bb8:	e3530001 	cmp	r3, #1
     bbc:	03a00006 	moveq	r0, #6
     bc0:	0a000014 	beq	c18 <main+0x1a4>
  else if (number==2) return 0b1011011;
     bc4:	e3530002 	cmp	r3, #2
     bc8:	03a0005b 	moveq	r0, #91	; 0x5b
     bcc:	0a000011 	beq	c18 <main+0x1a4>
  else if (number==3) return 0b1001111;
     bd0:	e3530003 	cmp	r3, #3
     bd4:	03a0004f 	moveq	r0, #79	; 0x4f
     bd8:	0a00000e 	beq	c18 <main+0x1a4>
  else if (number==4) return 0b1100110;
     bdc:	e3530004 	cmp	r3, #4
     be0:	03a00066 	moveq	r0, #102	; 0x66
     be4:	0a00000b 	beq	c18 <main+0x1a4>
  else if (number==5) return 0b1101101;
     be8:	e3530005 	cmp	r3, #5
     bec:	03a0006d 	moveq	r0, #109	; 0x6d
     bf0:	0a000008 	beq	c18 <main+0x1a4>
  else if (number==6) return 0b1111101;
     bf4:	e3530006 	cmp	r3, #6
     bf8:	03a0007d 	moveq	r0, #125	; 0x7d
     bfc:	0a000005 	beq	c18 <main+0x1a4>
  else if (number==7) return 0b0000111;
     c00:	e3530007 	cmp	r3, #7
     c04:	01a00003 	moveq	r0, r3
     c08:	0a000002 	beq	c18 <main+0x1a4>
  else if (number==8) return 0b1111111;
     c0c:	e3530008 	cmp	r3, #8
     c10:	13a0006f 	movne	r0, #111	; 0x6f
     c14:	03a0007f 	moveq	r0, #127	; 0x7f
	ind=ind/48000;
	
	unsigned int sec=ind%60;
	unsigned int min=ind/60;	
	char HEX0 = sevenseg(sec%10);	
	char HEX1 = sevenseg(sec/10);	
     c18:	e083c298 	umull	r12, r3, r8, r2
     c1c:	e7ef31d3 	ubfx	r3, r3, #3, #16
extern volatile int volume;
extern volatile int songnumber;


char sevenseg(short number){
  if      (number==0) return 0b0111111;
     c20:	e3530000 	cmp	r3, #0
     c24:	03a03c3f 	moveq	r3, #16128	; 0x3f00
     c28:	0a00001b 	beq	c9c <main+0x228>
  else if (number==1) return 0b0000110;
     c2c:	e6bf3073 	sxth	r3, r3
     c30:	e3530001 	cmp	r3, #1
     c34:	03a03c06 	moveq	r3, #1536	; 0x600
     c38:	0a000017 	beq	c9c <main+0x228>
  else if (number==2) return 0b1011011;
     c3c:	e3530002 	cmp	r3, #2
     c40:	03a03c5b 	moveq	r3, #23296	; 0x5b00
     c44:	0a000014 	beq	c9c <main+0x228>
  else if (number==3) return 0b1001111;
     c48:	e3530003 	cmp	r3, #3
     c4c:	03a03c4f 	moveq	r3, #20224	; 0x4f00
     c50:	0a000011 	beq	c9c <main+0x228>
  else if (number==4) return 0b1100110;
     c54:	e3530004 	cmp	r3, #4
     c58:	03a03c66 	moveq	r3, #26112	; 0x6600
     c5c:	0a00000e 	beq	c9c <main+0x228>
  else if (number==5) return 0b1101101;
     c60:	e3530005 	cmp	r3, #5
     c64:	03a03c6d 	moveq	r3, #27904	; 0x6d00
     c68:	0a00000b 	beq	c9c <main+0x228>
  else if (number==6) return 0b1111101;
     c6c:	e3530006 	cmp	r3, #6
     c70:	03a03c7d 	moveq	r3, #32000	; 0x7d00
     c74:	0a000008 	beq	c9c <main+0x228>
  else if (number==7) return 0b0000111;
     c78:	e3530007 	cmp	r3, #7
     c7c:	03a03c07 	moveq	r3, #1792	; 0x700
     c80:	0a000005 	beq	c9c <main+0x228>
  else if (number==8) return 0b1111111;
     c84:	e3530008 	cmp	r3, #8
     c88:	03a03c7f 	moveq	r3, #32512	; 0x7f00
     c8c:	0a000002 	beq	c9c <main+0x228>
  else if (number==9) return 0b1101111;
     c90:	e3530009 	cmp	r3, #9
     c94:	13a03c7e 	movne	r3, #32256	; 0x7e00
     c98:	03a03c6f 	moveq	r3, #28416	; 0x6f00
	
	unsigned int sec=ind%60;
	unsigned int min=ind/60;	
	char HEX0 = sevenseg(sec%10);	
	char HEX1 = sevenseg(sec/10);	
	char HEX2 = sevenseg(min%10);
     c9c:	e082c198 	umull	r12, r2, r8, r1
     ca0:	e1a021a2 	lsr	r2, r2, #3
     ca4:	e0822102 	add	r2, r2, r2, lsl #2
     ca8:	e0412082 	sub	r2, r1, r2, lsl #1
     cac:	e6ff2072 	uxth	r2, r2
extern volatile int volume;
extern volatile int songnumber;


char sevenseg(short number){
  if      (number==0) return 0b0111111;
     cb0:	e3520000 	cmp	r2, #0
     cb4:	03a0283f 	moveq	r2, #4128768	; 0x3f0000
     cb8:	0a000018 	beq	d20 <main+0x2ac>
  else if (number==1) return 0b0000110;
     cbc:	e6bf2072 	sxth	r2, r2
     cc0:	e3520001 	cmp	r2, #1
     cc4:	03a02806 	moveq	r2, #393216	; 0x60000
     cc8:	0a000014 	beq	d20 <main+0x2ac>
  else if (number==2) return 0b1011011;
     ccc:	e3520002 	cmp	r2, #2
     cd0:	03a0285b 	moveq	r2, #5963776	; 0x5b0000
     cd4:	0a000011 	beq	d20 <main+0x2ac>
  else if (number==3) return 0b1001111;
     cd8:	e3520003 	cmp	r2, #3
     cdc:	03a0284f 	moveq	r2, #5177344	; 0x4f0000
     ce0:	0a00000e 	beq	d20 <main+0x2ac>
  else if (number==4) return 0b1100110;
     ce4:	e3520004 	cmp	r2, #4
     ce8:	03a02866 	moveq	r2, #6684672	; 0x660000
     cec:	0a00000b 	beq	d20 <main+0x2ac>
  else if (number==5) return 0b1101101;
     cf0:	e3520005 	cmp	r2, #5
     cf4:	03a0286d 	moveq	r2, #7143424	; 0x6d0000
     cf8:	0a000008 	beq	d20 <main+0x2ac>
  else if (number==6) return 0b1111101;
     cfc:	e3520006 	cmp	r2, #6
     d00:	03a0287d 	moveq	r2, #8192000	; 0x7d0000
     d04:	0a000005 	beq	d20 <main+0x2ac>
  else if (number==7) return 0b0000111;
     d08:	e3520007 	cmp	r2, #7
     d0c:	03a02807 	moveq	r2, #458752	; 0x70000
     d10:	0a000002 	beq	d20 <main+0x2ac>
  else if (number==8) return 0b1111111;
     d14:	e3520008 	cmp	r2, #8
     d18:	13a0286f 	movne	r2, #7274496	; 0x6f0000
     d1c:	03a0287f 	moveq	r2, #8323072	; 0x7f0000
	unsigned int sec=ind%60;
	unsigned int min=ind/60;	
	char HEX0 = sevenseg(sec%10);	
	char HEX1 = sevenseg(sec/10);	
	char HEX2 = sevenseg(min%10);
	*SEG0 = (HEX2 << 16) | (HEX1 << 8) | (HEX0);
     d20:	e1833000 	orr	r3, r3, r0
     d24:	e1833002 	orr	r3, r3, r2
     d28:	e5853020 	str	r3, [r5, #32]
			}
		}
		//Writes the song duration
		hexDisp(buffer_index);
		
		volatile unsigned int sliders = *SLIDERS_PTR;
     d2c:	e5953040 	ldr	r3, [r5, #64]	; 0x40
     d30:	e58d3014 	str	r3, [sp, #20]
		//Pause Condition
		while(sliders){
     d34:	e59d3014 	ldr	r3, [sp, #20]
     d38:	e3530000 	cmp	r3, #0
     d3c:	1afffffa 	bne	d2c <main+0x2b8>
			 sliders = *SLIDERS_PTR;
		};
		//Display time				
		//Change song if key pressed
		if (songchanging){
     d40:	e5963000 	ldr	r3, [r6]
     d44:	e3530000 	cmp	r3, #0
     d48:	1a000012 	bne	d98 <main+0x324>
		changesong(musicptr,songnumber,&buffer_index,&size);
		}
		//Change song if song ended
		if(buffer_index >= (size/2)) {
     d4c:	e59d300c 	ldr	r3, [sp, #12]
     d50:	e59d2008 	ldr	r2, [sp, #8]
     d54:	e15300a2 	cmp	r3, r2, lsr #1
     d58:	3affff65 	bcc	af4 <main+0x80>
			songchanging=1;
     d5c:	e3a03001 	mov	r3, #1
     d60:	e5863000 	str	r3, [r6]
			if(songnumber<SONG_NUM-1){
     d64:	e5993030 	ldr	r3, [r9, #48]	; 0x30
     d68:	e3530005 	cmp	r3, #5
     d6c:	da00000f 	ble	db0 <main+0x33c>
				songnumber++;
				changesong(musicptr,songnumber,&buffer_index,&size);	
			}
			else{
				songnumber = 0;
     d70:	e30a19fc 	movw	r1, #43516	; 0xa9fc
     d74:	e3a03000 	mov	r3, #0
     d78:	e3401001 	movt	r1, #1
				changesong(musicptr,songnumber,&buffer_index,&size);
     d7c:	e1a00007 	mov	r0, r7
			if(songnumber<SONG_NUM-1){
				songnumber++;
				changesong(musicptr,songnumber,&buffer_index,&size);	
			}
			else{
				songnumber = 0;
     d80:	e5813030 	str	r3, [r1, #48]	; 0x30
				changesong(musicptr,songnumber,&buffer_index,&size);
     d84:	e28d3008 	add	r3, sp, #8
     d88:	e59d2004 	ldr	r2, [sp, #4]
     d8c:	e5911030 	ldr	r1, [r1, #48]	; 0x30
     d90:	ebfffedb 	bl	904 <changesong>
     d94:	eaffff55 	b	af0 <main+0x7c>
			 sliders = *SLIDERS_PTR;
		};
		//Display time				
		//Change song if key pressed
		if (songchanging){
		changesong(musicptr,songnumber,&buffer_index,&size);
     d98:	e5991030 	ldr	r1, [r9, #48]	; 0x30
     d9c:	e1a00007 	mov	r0, r7
     da0:	e59d2004 	ldr	r2, [sp, #4]
     da4:	e28d3008 	add	r3, sp, #8
     da8:	ebfffed5 	bl	904 <changesong>
     dac:	eaffffe6 	b	d4c <main+0x2d8>
		}
		//Change song if song ended
		if(buffer_index >= (size/2)) {
			songchanging=1;
			if(songnumber<SONG_NUM-1){
				songnumber++;
     db0:	e30a09fc 	movw	r0, #43516	; 0xa9fc
     db4:	e30ac9fc 	movw	r12, #43516	; 0xa9fc
     db8:	e3400001 	movt	r0, #1
     dbc:	e340c001 	movt	r12, #1
     dc0:	e5901030 	ldr	r1, [r0, #48]	; 0x30
				changesong(musicptr,songnumber,&buffer_index,&size);	
     dc4:	e28d3008 	add	r3, sp, #8
     dc8:	e1a00007 	mov	r0, r7
     dcc:	e59d2004 	ldr	r2, [sp, #4]
		}
		//Change song if song ended
		if(buffer_index >= (size/2)) {
			songchanging=1;
			if(songnumber<SONG_NUM-1){
				songnumber++;
     dd0:	e2811001 	add	r1, r1, #1
     dd4:	e58c1030 	str	r1, [r12, #48]	; 0x30
				changesong(musicptr,songnumber,&buffer_index,&size);	
     dd8:	e59c1030 	ldr	r1, [r12, #48]	; 0x30
     ddc:	ebfffec8 	bl	904 <changesong>
     de0:	eaffff42 	b	af0 <main+0x7c>

00000de4 <alt_cache_system_invalidate>:
    char * va = vaddress;
#endif

    /* Verify preconditions:
     /  - address and length are on the cache boundaries */
    if (((uintptr_t)vaddress & (ALT_CACHE_LINE_SIZE - 1)) != 0)
     de4:	e310001f 	tst	r0, #31
static ALT_STATUS_CODE alt_cache_l2_invalidate_helper(uintptr_t paddress, size_t length);
static ALT_STATUS_CODE alt_cache_l2_clean_helper(uintptr_t paddress, size_t length);
static ALT_STATUS_CODE alt_cache_l2_purge_helper(uintptr_t paddress, size_t length);

ALT_STATUS_CODE alt_cache_system_invalidate(void * vaddress, size_t length)
{
     de8:	e52d4004 	push	{r4}		; (str r4, [sp, #-4]!)
    char * va = vaddress;
#endif

    /* Verify preconditions:
     /  - address and length are on the cache boundaries */
    if (((uintptr_t)vaddress & (ALT_CACHE_LINE_SIZE - 1)) != 0)
     dec:	e1a02000 	mov	r2, r0
     df0:	1a00002f 	bne	eb4 <alt_cache_system_invalidate+0xd0>
    {
        return ALT_E_BAD_ARG;
    }
    if ((length & (ALT_CACHE_LINE_SIZE - 1)) != 0)
     df4:	e311001f 	tst	r1, #31
     df8:	1a00002d 	bne	eb4 <alt_cache_system_invalidate+0xd0>

        va     += seg_size;
        length -= seg_size;
    }
#else
    if (length)
     dfc:	e3510000 	cmp	r1, #0
        alt_cache_l1_data_invalidate_helper(vaddress, length);
        /* __asm("dsb") handled by l1_data_invalidate(). */
    }
#endif

    return ALT_E_SUCCESS;
     e00:	01a00001 	moveq	r0, r1

        va     += seg_size;
        length -= seg_size;
    }
#else
    if (length)
     e04:	0a000028 	beq	eac <alt_cache_system_invalidate+0xc8>
    uintptr_t pa;

    /* For each stride: Issue invalidate line by PA command, then wait for it
     / to complete by polling the same register.
     / For more information, see L2C-310, section 3.3.10. */
    for (pa = paddress; pa < paddress + length; pa += ALT_CACHE_LINE_SIZE)
     e08:	e0801001 	add	r1, r0, r1
     e0c:	e1500001 	cmp	r0, r1
     e10:	31a03000 	movcc	r3, r0
    {
        alt_write_word(ALT_MPUL2_INV_PA_ADDR, pa);
     e14:	33e0c801 	mvncc	r12, #65536	; 0x10000
    uintptr_t pa;

    /* For each stride: Issue invalidate line by PA command, then wait for it
     / to complete by polling the same register.
     / For more information, see L2C-310, section 3.3.10. */
    for (pa = paddress; pa < paddress + length; pa += ALT_CACHE_LINE_SIZE)
     e18:	2a000003 	bcs	e2c <alt_cache_system_invalidate+0x48>
    {
        alt_write_word(ALT_MPUL2_INV_PA_ADDR, pa);
     e1c:	e50c388f 	str	r3, [r12, #-2191]	; 0xfffff771
    uintptr_t pa;

    /* For each stride: Issue invalidate line by PA command, then wait for it
     / to complete by polling the same register.
     / For more information, see L2C-310, section 3.3.10. */
    for (pa = paddress; pa < paddress + length; pa += ALT_CACHE_LINE_SIZE)
     e20:	e2833020 	add	r3, r3, #32
     e24:	e1530001 	cmp	r3, r1
     e28:	3afffffb 	bcc	e1c <alt_cache_system_invalidate+0x38>
        alt_write_word(ALT_MPUL2_INV_PA_ADDR, pa);

        ++seg;
    }

    while (alt_read_word(ALT_MPUL2_INV_PA_ADDR))
     e2c:	e3e04801 	mvn	r4, #65536	; 0x10000
     e30:	e514388f 	ldr	r3, [r4, #-2191]	; 0xfffff771
     e34:	e3530000 	cmp	r3, #0
     e38:	13a03080 	movne	r3, #128	; 0x80
     e3c:	1a000002 	bne	e4c <alt_cache_system_invalidate+0x68>
     e40:	ea000004 	b	e58 <alt_cache_system_invalidate+0x74>
    {
        /* Atomic operation still in progress. */

        if (i == ALT_CACHE_L2_INVALIDATE_ADDR_TIMEOUT)
     e44:	e2533001 	subs	r3, r3, #1
     e48:	0a000002 	beq	e58 <alt_cache_system_invalidate+0x74>
        alt_write_word(ALT_MPUL2_INV_PA_ADDR, pa);

        ++seg;
    }

    while (alt_read_word(ALT_MPUL2_INV_PA_ADDR))
     e4c:	e514c88f 	ldr	r12, [r4, #-2191]	; 0xfffff771
     e50:	e35c0000 	cmp	r12, #0
     e54:	1afffffa 	bne	e44 <alt_cache_system_invalidate+0x60>
    int i = 0;

    /* Issue cache sync command, then wait for it to complete by polling the same register.
     / For more information, see L2C-310, section 3.3.10. */

    alt_write_word(ALT_MPUL2_CACHE_SYNC_ADDR, 0);
     e58:	e3e04801 	mvn	r4, #65536	; 0x10000
     e5c:	e3a03000 	mov	r3, #0
     e60:	e50438cf 	str	r3, [r4, #-2255]	; 0xfffff731

    while (alt_read_word(ALT_MPUL2_CACHE_SYNC_ADDR))
     e64:	e51438cf 	ldr	r3, [r4, #-2255]	; 0xfffff731
     e68:	e3530000 	cmp	r3, #0
     e6c:	13a03080 	movne	r3, #128	; 0x80
     e70:	1a000002 	bne	e80 <alt_cache_system_invalidate+0x9c>
     e74:	ea000004 	b	e8c <alt_cache_system_invalidate+0xa8>
    {
        /* Atomic operation still in progress. */

        if (i == ALT_CACHE_L2_SYNC_TIMEOUT)
     e78:	e2533001 	subs	r3, r3, #1
     e7c:	0a000002 	beq	e8c <alt_cache_system_invalidate+0xa8>
    /* Issue cache sync command, then wait for it to complete by polling the same register.
     / For more information, see L2C-310, section 3.3.10. */

    alt_write_word(ALT_MPUL2_CACHE_SYNC_ADDR, 0);

    while (alt_read_word(ALT_MPUL2_CACHE_SYNC_ADDR))
     e80:	e514c8cf 	ldr	r12, [r4, #-2255]	; 0xfffff731
     e84:	e35c0000 	cmp	r12, #0
     e88:	1afffffa 	bne	e78 <alt_cache_system_invalidate+0x94>
     / segment.*/

    /* The DCIMVAC uses the MVA format for the register. This is simply the
     / virtual address of the line to be invalidated.
     / See ARMv7-A,R, section B4.2.1. */
    for (va = (uintptr_t)vaddress; va < (uintptr_t)vaddress + length; va += ALT_CACHE_LINE_SIZE)
     e8c:	e1500001 	cmp	r0, r1
     e90:	2a000003 	bcs	ea4 <alt_cache_system_invalidate+0xc0>
        __asm("MCR p15, 0, %[va], c7, c6, 1" : : [va] "r" (va));
#elif defined(__ARMCC_VERSION)
        __asm("MCR p15, 0, va, c7, c6, 1");
#elif defined(_MSC_VER)
#else
        __asm("MCR p15, 0, %0, c7, c6, 1" : : "r" (va));
     e94:	ee072f36 	mcr	15, 0, r2, cr7, cr6, {1}
     / segment.*/

    /* The DCIMVAC uses the MVA format for the register. This is simply the
     / virtual address of the line to be invalidated.
     / See ARMv7-A,R, section B4.2.1. */
    for (va = (uintptr_t)vaddress; va < (uintptr_t)vaddress + length; va += ALT_CACHE_LINE_SIZE)
     e98:	e2822020 	add	r2, r2, #32
     e9c:	e1520001 	cmp	r2, r1
     ea0:	3afffffb 	bcc	e94 <alt_cache_system_invalidate+0xb0>
#endif
    }

#if !defined(_MSC_VER)
    /* Ensure all cache maintenance operations complete before returning. */
    __asm("dsb");
     ea4:	f57ff04f 	dsb	sy
        alt_cache_l1_data_invalidate_helper(vaddress, length);
        /* __asm("dsb") handled by l1_data_invalidate(). */
    }
#endif

    return ALT_E_SUCCESS;
     ea8:	e3a00000 	mov	r0, #0
}
     eac:	e8bd0010 	ldmfd	sp!, {r4}
     eb0:	e12fff1e 	bx	lr

    /* Verify preconditions:
     /  - address and length are on the cache boundaries */
    if (((uintptr_t)vaddress & (ALT_CACHE_LINE_SIZE - 1)) != 0)
    {
        return ALT_E_BAD_ARG;
     eb4:	e3e00008 	mvn	r0, #8
     eb8:	eafffffb 	b	eac <alt_cache_system_invalidate+0xc8>

00000ebc <alt_cache_system_clean>:
    char * va = vaddress;
#endif

    /* Verify preconditions:
     /  - address and length are on the cache boundaries */
    if (((uintptr_t)vaddress & (ALT_CACHE_LINE_SIZE - 1)) != 0)
     ebc:	e310001f 	tst	r0, #31
     ec0:	e1a03000 	mov	r3, r0
     ec4:	1a00002d 	bne	f80 <alt_cache_system_clean+0xc4>
    {
        return ALT_E_BAD_ARG;
    }
    if ((length & (ALT_CACHE_LINE_SIZE - 1)) != 0)
     ec8:	e311001f 	tst	r1, #31
     ecc:	1a00002b 	bne	f80 <alt_cache_system_clean+0xc4>

        va     += seg_size;
        length -= seg_size;
    }
#else
    if (length)
     ed0:	e3510000 	cmp	r1, #0
     ed4:	0a000027 	beq	f78 <alt_cache_system_clean+0xbc>
     / point of Coherency) and loop for the length of the segment. */

    /* The DCCMVAC uses the MVA format for the register. This is simply the
     / virtual address of the line to be invalidated.
     / See ARMv7-A,R, section B4.2.1. */
    for (va = (uintptr_t)vaddress; va < (uintptr_t)vaddress + length; va += ALT_CACHE_LINE_SIZE)
     ed8:	e0801001 	add	r1, r0, r1
     edc:	e1500001 	cmp	r0, r1
     ee0:	2a000004 	bcs	ef8 <alt_cache_system_clean+0x3c>
     ee4:	e1a02000 	mov	r2, r0
        __asm("MCR p15, 0, %[va], c7, c10, 1" : : [va] "r" (va));
#elif defined(__ARMCC_VERSION)
        __asm("MCR p15, 0, va, c7, c10, 1");
#elif defined(_MSC_VER)
#else
        __asm("MCR p15, 0, %0, c7, c10, 1" : : "r" (va));
     ee8:	ee072f3a 	mcr	15, 0, r2, cr7, cr10, {1}
     / point of Coherency) and loop for the length of the segment. */

    /* The DCCMVAC uses the MVA format for the register. This is simply the
     / virtual address of the line to be invalidated.
     / See ARMv7-A,R, section B4.2.1. */
    for (va = (uintptr_t)vaddress; va < (uintptr_t)vaddress + length; va += ALT_CACHE_LINE_SIZE)
     eec:	e2822020 	add	r2, r2, #32
     ef0:	e1520001 	cmp	r2, r1
     ef4:	3afffffb 	bcc	ee8 <alt_cache_system_clean+0x2c>
#endif
    }

#if !defined(_MSC_VER)
	/* Ensure all cache maintenance operations complete before returning. */
	__asm("dsb");
     ef8:	f57ff04f 	dsb	sy
    uintptr_t pa;

    /* For each stride: Issue clean line by PA command, then wait for it to
     / complete by polling the same register.
     / For more information, see L2C-310, section 3.3.10. */
    for (pa = paddress; pa < paddress + length; pa += ALT_CACHE_LINE_SIZE)
     efc:	e1500001 	cmp	r0, r1
     f00:	2a000004 	bcs	f18 <alt_cache_system_clean+0x5c>
    {
        alt_write_word(ALT_MPUL2_CLEAN_PA_ADDR, pa);
     f04:	e3e02801 	mvn	r2, #65536	; 0x10000
     f08:	e502384f 	str	r3, [r2, #-2127]	; 0xfffff7b1
    uintptr_t pa;

    /* For each stride: Issue clean line by PA command, then wait for it to
     / complete by polling the same register.
     / For more information, see L2C-310, section 3.3.10. */
    for (pa = paddress; pa < paddress + length; pa += ALT_CACHE_LINE_SIZE)
     f0c:	e2833020 	add	r3, r3, #32
     f10:	e1530001 	cmp	r3, r1
     f14:	3afffffb 	bcc	f08 <alt_cache_system_clean+0x4c>
        alt_write_word(ALT_MPUL2_CLEAN_PA_ADDR, pa);

        ++seg;
    }

    while (alt_read_word(ALT_MPUL2_CLEAN_PA_ADDR) & ALT_MPUL2_COMMON_PA_C_SET_MSK)
     f18:	e3e01801 	mvn	r1, #65536	; 0x10000
     f1c:	e511384f 	ldr	r3, [r1, #-2127]	; 0xfffff7b1
     f20:	e3130001 	tst	r3, #1
     f24:	13a03080 	movne	r3, #128	; 0x80
     f28:	1a000002 	bne	f38 <alt_cache_system_clean+0x7c>
     f2c:	ea000004 	b	f44 <alt_cache_system_clean+0x88>
    {
        /* Atomic operation still in progress. */

        if (i == ALT_CACHE_L2_CLEAN_ADDR_TIMEOUT)
     f30:	e2533001 	subs	r3, r3, #1
     f34:	0a000002 	beq	f44 <alt_cache_system_clean+0x88>
        alt_write_word(ALT_MPUL2_CLEAN_PA_ADDR, pa);

        ++seg;
    }

    while (alt_read_word(ALT_MPUL2_CLEAN_PA_ADDR) & ALT_MPUL2_COMMON_PA_C_SET_MSK)
     f38:	e511284f 	ldr	r2, [r1, #-2127]	; 0xfffff7b1
     f3c:	e3120001 	tst	r2, #1
     f40:	1afffffa 	bne	f30 <alt_cache_system_clean+0x74>
    int i = 0;

    /* Issue cache sync command, then wait for it to complete by polling the same register.
     / For more information, see L2C-310, section 3.3.10. */

    alt_write_word(ALT_MPUL2_CACHE_SYNC_ADDR, 0);
     f44:	e3e01801 	mvn	r1, #65536	; 0x10000
     f48:	e3a03000 	mov	r3, #0
     f4c:	e50138cf 	str	r3, [r1, #-2255]	; 0xfffff731

    while (alt_read_word(ALT_MPUL2_CACHE_SYNC_ADDR))
     f50:	e51138cf 	ldr	r3, [r1, #-2255]	; 0xfffff731
     f54:	e3530000 	cmp	r3, #0
     f58:	13a03080 	movne	r3, #128	; 0x80
     f5c:	1a000002 	bne	f6c <alt_cache_system_clean+0xb0>
     f60:	ea000004 	b	f78 <alt_cache_system_clean+0xbc>
    {
        /* Atomic operation still in progress. */

        if (i == ALT_CACHE_L2_SYNC_TIMEOUT)
     f64:	e2533001 	subs	r3, r3, #1
     f68:	0a000002 	beq	f78 <alt_cache_system_clean+0xbc>
    /* Issue cache sync command, then wait for it to complete by polling the same register.
     / For more information, see L2C-310, section 3.3.10. */

    alt_write_word(ALT_MPUL2_CACHE_SYNC_ADDR, 0);

    while (alt_read_word(ALT_MPUL2_CACHE_SYNC_ADDR))
     f6c:	e51128cf 	ldr	r2, [r1, #-2255]	; 0xfffff731
     f70:	e3520000 	cmp	r2, #0
     f74:	1afffffa 	bne	f64 <alt_cache_system_clean+0xa8>
        alt_cache_l2_clean_helper((uintptr_t)vaddress, length);
        alt_cache_l2_sync();
    }
#endif

    return ALT_E_SUCCESS;
     f78:	e3a00000 	mov	r0, #0
     f7c:	e12fff1e 	bx	lr

    /* Verify preconditions:
     /  - address and length are on the cache boundaries */
    if (((uintptr_t)vaddress & (ALT_CACHE_LINE_SIZE - 1)) != 0)
    {
        return ALT_E_BAD_ARG;
     f80:	e3e00008 	mvn	r0, #8
     f84:	e12fff1e 	bx	lr

00000f88 <alt_cache_system_purge>:
    char * va = vaddress;
#endif

    /* Verify preconditions: 
     /  - address and length are on the cache boundaries */
    if (((uintptr_t)vaddress & (ALT_CACHE_LINE_SIZE - 1)) != 0)
     f88:	e310001f 	tst	r0, #31

    return ALT_E_SUCCESS;
}

ALT_STATUS_CODE alt_cache_system_purge(void * vaddress, size_t length)
{
     f8c:	e52d4004 	push	{r4}		; (str r4, [sp, #-4]!)
    char * va = vaddress;
#endif

    /* Verify preconditions: 
     /  - address and length are on the cache boundaries */
    if (((uintptr_t)vaddress & (ALT_CACHE_LINE_SIZE - 1)) != 0)
     f90:	e1a02000 	mov	r2, r0
     f94:	1a000036 	bne	1074 <alt_cache_system_purge+0xec>
    {
        return ALT_E_BAD_ARG;
    }
    if ((length & (ALT_CACHE_LINE_SIZE - 1)) != 0)
     f98:	e311001f 	tst	r1, #31
     f9c:	1a000034 	bne	1074 <alt_cache_system_purge+0xec>

        va     += seg_size;
        length -= seg_size;
    }
#else
    if (length)
     fa0:	e3510000 	cmp	r1, #0
     fa4:	0a00002f 	beq	1068 <alt_cache_system_purge+0xe0>
     / point of Coherency) and loop for the length of the segment. */

    /* The DCCMVAC uses the MVA format for the register. This is simply the
     / virtual address of the line to be invalidated.
     / See ARMv7-A,R, section B4.2.1. */
    for (va = (uintptr_t)vaddress; va < (uintptr_t)vaddress + length; va += ALT_CACHE_LINE_SIZE)
     fa8:	e0801001 	add	r1, r0, r1
     fac:	e1500001 	cmp	r0, r1
     fb0:	2a000004 	bcs	fc8 <alt_cache_system_purge+0x40>
     fb4:	e1a03000 	mov	r3, r0
        __asm("MCR p15, 0, %[va], c7, c10, 1" : : [va] "r" (va));
#elif defined(__ARMCC_VERSION)
        __asm("MCR p15, 0, va, c7, c10, 1");
#elif defined(_MSC_VER)
#else
        __asm("MCR p15, 0, %0, c7, c10, 1" : : "r" (va));
     fb8:	ee073f3a 	mcr	15, 0, r3, cr7, cr10, {1}
     / point of Coherency) and loop for the length of the segment. */

    /* The DCCMVAC uses the MVA format for the register. This is simply the
     / virtual address of the line to be invalidated.
     / See ARMv7-A,R, section B4.2.1. */
    for (va = (uintptr_t)vaddress; va < (uintptr_t)vaddress + length; va += ALT_CACHE_LINE_SIZE)
     fbc:	e2833020 	add	r3, r3, #32
     fc0:	e1530001 	cmp	r3, r1
     fc4:	3afffffb 	bcc	fb8 <alt_cache_system_purge+0x30>
#endif
    }

#if !defined(_MSC_VER)
	/* Ensure all cache maintenance operations complete before returning. */
	__asm("dsb");
     fc8:	f57ff04f 	dsb	sy
    uintptr_t pa;

    /* For each stride: Issue clean and invalidate line by PA command, then
     / wait for it to complete by polling the same register.
     / For more information, see L2C-310, section 3.3.10. */
    for (pa = paddress; pa < paddress + length; pa += ALT_CACHE_LINE_SIZE)
     fcc:	e1500001 	cmp	r0, r1
     fd0:	2a000005 	bcs	fec <alt_cache_system_purge+0x64>
     fd4:	e1a03000 	mov	r3, r0
    {
        alt_write_word(ALT_MPUL2_CLEAN_INV_PA_ADDR, pa);
     fd8:	e3e0c801 	mvn	r12, #65536	; 0x10000
     fdc:	e50c380f 	str	r3, [r12, #-2063]	; 0xfffff7f1
    uintptr_t pa;

    /* For each stride: Issue clean and invalidate line by PA command, then
     / wait for it to complete by polling the same register.
     / For more information, see L2C-310, section 3.3.10. */
    for (pa = paddress; pa < paddress + length; pa += ALT_CACHE_LINE_SIZE)
     fe0:	e2833020 	add	r3, r3, #32
     fe4:	e1530001 	cmp	r3, r1
     fe8:	3afffffb 	bcc	fdc <alt_cache_system_purge+0x54>
        alt_write_word(ALT_MPUL2_CLEAN_INV_PA_ADDR, pa);

        ++seg;
    }

    while (alt_read_word(ALT_MPUL2_CLEAN_INV_PA_ADDR) & ALT_MPUL2_COMMON_PA_C_SET_MSK)
     fec:	e3e04801 	mvn	r4, #65536	; 0x10000
     ff0:	e514380f 	ldr	r3, [r4, #-2063]	; 0xfffff7f1
     ff4:	e3130001 	tst	r3, #1
     ff8:	13a03080 	movne	r3, #128	; 0x80
     ffc:	1a000002 	bne	100c <alt_cache_system_purge+0x84>
    1000:	ea000004 	b	1018 <alt_cache_system_purge+0x90>
    {
        /* Atomic operation still in progress. */

        if (i == ALT_CACHE_L2_PURGE_ADDR_TIMEOUT)
    1004:	e2533001 	subs	r3, r3, #1
    1008:	0a000002 	beq	1018 <alt_cache_system_purge+0x90>
        alt_write_word(ALT_MPUL2_CLEAN_INV_PA_ADDR, pa);

        ++seg;
    }

    while (alt_read_word(ALT_MPUL2_CLEAN_INV_PA_ADDR) & ALT_MPUL2_COMMON_PA_C_SET_MSK)
    100c:	e514c80f 	ldr	r12, [r4, #-2063]	; 0xfffff7f1
    1010:	e31c0001 	tst	r12, #1
    1014:	1afffffa 	bne	1004 <alt_cache_system_purge+0x7c>
    int i = 0;

    /* Issue cache sync command, then wait for it to complete by polling the same register.
     / For more information, see L2C-310, section 3.3.10. */

    alt_write_word(ALT_MPUL2_CACHE_SYNC_ADDR, 0);
    1018:	e3e04801 	mvn	r4, #65536	; 0x10000
    101c:	e3a03000 	mov	r3, #0
    1020:	e50438cf 	str	r3, [r4, #-2255]	; 0xfffff731

    while (alt_read_word(ALT_MPUL2_CACHE_SYNC_ADDR))
    1024:	e51438cf 	ldr	r3, [r4, #-2255]	; 0xfffff731
    1028:	e3530000 	cmp	r3, #0
    102c:	13a03080 	movne	r3, #128	; 0x80
    1030:	1a000002 	bne	1040 <alt_cache_system_purge+0xb8>
    1034:	ea000004 	b	104c <alt_cache_system_purge+0xc4>
    {
        /* Atomic operation still in progress. */

        if (i == ALT_CACHE_L2_SYNC_TIMEOUT)
    1038:	e2533001 	subs	r3, r3, #1
    103c:	0a000002 	beq	104c <alt_cache_system_purge+0xc4>
    /* Issue cache sync command, then wait for it to complete by polling the same register.
     / For more information, see L2C-310, section 3.3.10. */

    alt_write_word(ALT_MPUL2_CACHE_SYNC_ADDR, 0);

    while (alt_read_word(ALT_MPUL2_CACHE_SYNC_ADDR))
    1040:	e514c8cf 	ldr	r12, [r4, #-2255]	; 0xfffff731
    1044:	e35c0000 	cmp	r12, #0
    1048:	1afffffa 	bne	1038 <alt_cache_system_purge+0xb0>
     / segment.*/

    /* The DCIMVAC uses the MVA format for the register. This is simply the
     / virtual address of the line to be invalidated.
     / See ARMv7-A,R, section B4.2.1. */
    for (va = (uintptr_t)vaddress; va < (uintptr_t)vaddress + length; va += ALT_CACHE_LINE_SIZE)
    104c:	e1500001 	cmp	r0, r1
    1050:	2a000003 	bcs	1064 <alt_cache_system_purge+0xdc>
        __asm("MCR p15, 0, %[va], c7, c6, 1" : : [va] "r" (va));
#elif defined(__ARMCC_VERSION)
        __asm("MCR p15, 0, va, c7, c6, 1");
#elif defined(_MSC_VER)
#else
        __asm("MCR p15, 0, %0, c7, c6, 1" : : "r" (va));
    1054:	ee072f36 	mcr	15, 0, r2, cr7, cr6, {1}
     / segment.*/

    /* The DCIMVAC uses the MVA format for the register. This is simply the
     / virtual address of the line to be invalidated.
     / See ARMv7-A,R, section B4.2.1. */
    for (va = (uintptr_t)vaddress; va < (uintptr_t)vaddress + length; va += ALT_CACHE_LINE_SIZE)
    1058:	e2822020 	add	r2, r2, #32
    105c:	e1520001 	cmp	r2, r1
    1060:	3afffffb 	bcc	1054 <alt_cache_system_purge+0xcc>
#endif
    }

#if !defined(_MSC_VER)
    /* Ensure all cache maintenance operations complete before returning. */
    __asm("dsb");
    1064:	f57ff04f 	dsb	sy
        alt_cache_l1_data_invalidate_helper(vaddress, length);
        /* __asm("dsb") handled by l1_data_invalidate(). */
    }
#endif

    return ALT_E_SUCCESS;
    1068:	e3a00000 	mov	r0, #0
}
    106c:	e8bd0010 	ldmfd	sp!, {r4}
    1070:	e12fff1e 	bx	lr

    /* Verify preconditions: 
     /  - address and length are on the cache boundaries */
    if (((uintptr_t)vaddress & (ALT_CACHE_LINE_SIZE - 1)) != 0)
    {
        return ALT_E_BAD_ARG;
    1074:	e3e00008 	mvn	r0, #8
    1078:	eafffffb 	b	106c <alt_cache_system_purge+0xe4>

0000107c <alt_cache_l1_instruction_enable>:
#elif defined(__ARMCC_VERSION)
    __asm("MRC p15, 0, sctlr,    c1, c0, 0");
#elif defined(_MSC_VER)
	sctlr = 0;
#else
    __asm("MRC p15, 0, %0,       c1, c0, 0" : "=r" (sctlr));
    107c:	ee113f10 	mrc	15, 0, r3, cr1, cr0, {0}
{
    /* Update SCTLR.I bit (bit 12)
     / See Cortex-A9 TRM, section 4.3.9 */

    uint32_t sctlr = sctlr_read_helper();
    if ((sctlr & ALT_CPU_SCTLR_I_SET_MSK) == 0)
    1080:	e2132a01 	ands	r2, r3, #4096	; 0x1000
    1084:	1a000002 	bne	1094 <alt_cache_l1_instruction_enable+0x18>
    __asm("MCR p15, 0, %[dummy], c7, c1, 0" : : [dummy] "r" (dummy));
#elif defined(__ARMCC_VERSION)
    __asm("MCR p15, 0, dummy,    c7, c1, 0");
#elif defined(_MSC_VER)
#else
    __asm("MCR p15, 0, %0,       c7, c1, 0" : : "r" (dummy));
    1088:	ee072f11 	mcr	15, 0, r2, cr7, cr1, {0}
    uint32_t sctlr = sctlr_read_helper();
    if ((sctlr & ALT_CPU_SCTLR_I_SET_MSK) == 0)
    {
        alt_cache_l1_instruction_invalidate();

        sctlr |= ALT_CPU_SCTLR_I_SET_MSK;
    108c:	e3833a01 	orr	r3, r3, #4096	; 0x1000
    __asm("MCR p15, 0, %[sctlr], c1, c0, 0" : : [sctlr] "r" (sctlr));
#elif defined(__ARMCC_VERSION)
    __asm("MCR p15, 0, sctlr,    c1, c0, 0");
#elif defined(_MSC_VER)
#else
    __asm("MCR p15, 0, %0,       c1, c0, 0" : : "r" (sctlr));
    1090:	ee013f10 	mcr	15, 0, r3, cr1, cr0, {0}
        sctlr |= ALT_CPU_SCTLR_I_SET_MSK;
        sctlr_write_helper(sctlr);
    }

    return ALT_E_SUCCESS;
}
    1094:	e3a00000 	mov	r0, #0
    1098:	e12fff1e 	bx	lr

0000109c <alt_cache_l1_instruction_disable>:
#elif defined(__ARMCC_VERSION)
    __asm("MRC p15, 0, sctlr,    c1, c0, 0");
#elif defined(_MSC_VER)
	sctlr = 0;
#else
    __asm("MRC p15, 0, %0,       c1, c0, 0" : "=r" (sctlr));
    109c:	ee113f10 	mrc	15, 0, r3, cr1, cr0, {0}
{
    /* Update SCTLR.I bit (bit 12)
     / See Cortex-A9 TRM, section 4.3.9 */

    uint32_t sctlr = sctlr_read_helper();
    sctlr &= ~ALT_CPU_SCTLR_I_SET_MSK;
    10a0:	e3c33a01 	bic	r3, r3, #4096	; 0x1000
    __asm("MCR p15, 0, %[sctlr], c1, c0, 0" : : [sctlr] "r" (sctlr));
#elif defined(__ARMCC_VERSION)
    __asm("MCR p15, 0, sctlr,    c1, c0, 0");
#elif defined(_MSC_VER)
#else
    __asm("MCR p15, 0, %0,       c1, c0, 0" : : "r" (sctlr));
    10a4:	ee013f10 	mcr	15, 0, r3, cr1, cr0, {0}
    uint32_t sctlr = sctlr_read_helper();
    sctlr &= ~ALT_CPU_SCTLR_I_SET_MSK;
    sctlr_write_helper(sctlr);

    return ALT_E_SUCCESS;
}
    10a8:	e3a00000 	mov	r0, #0
    10ac:	e12fff1e 	bx	lr

000010b0 <alt_cache_l1_instruction_is_enabled>:
#elif defined(__ARMCC_VERSION)
    __asm("MRC p15, 0, sctlr,    c1, c0, 0");
#elif defined(_MSC_VER)
	sctlr = 0;
#else
    __asm("MRC p15, 0, %0,       c1, c0, 0" : "=r" (sctlr));
    10b0:	ee110f10 	mrc	15, 0, r0, cr1, cr0, {0}
    }
    else
    {
        return false;
    }
}
    10b4:	e7e00650 	ubfx	r0, r0, #12, #1
    10b8:	e12fff1e 	bx	lr

000010bc <alt_cache_l1_instruction_invalidate>:
    __asm("MCR p15, 0, %[dummy], c7, c1, 0" : : [dummy] "r" (dummy));
#elif defined(__ARMCC_VERSION)
    __asm("MCR p15, 0, dummy,    c7, c1, 0");
#elif defined(_MSC_VER)
#else
    __asm("MCR p15, 0, %0,       c7, c1, 0" : : "r" (dummy));
    10bc:	e3a03000 	mov	r3, #0
    10c0:	ee073f11 	mcr	15, 0, r3, cr7, cr1, {0}
#endif

    return ALT_E_SUCCESS;
}
    10c4:	e3a00000 	mov	r0, #0
    10c8:	e12fff1e 	bx	lr

000010cc <alt_cache_l1_data_is_enabled>:
#elif defined(__ARMCC_VERSION)
    __asm("MRC p15, 0, sctlr,    c1, c0, 0");
#elif defined(_MSC_VER)
	sctlr = 0;
#else
    __asm("MRC p15, 0, %0,       c1, c0, 0" : "=r" (sctlr));
    10cc:	ee110f10 	mrc	15, 0, r0, cr1, cr0, {0}
    }
    else
    {
        return false;
    }
}
    10d0:	e7e00150 	ubfx	r0, r0, #2, #1
    10d4:	e12fff1e 	bx	lr

000010d8 <alt_cache_l1_data_invalidate>:
ALT_STATUS_CODE alt_cache_l1_data_invalidate(void * vaddress, size_t length)
{
    /* Verify preconditions:
     /  - length is non-zero
     /  - address and length are on the cache boundaries */
    if (length == 0)
    10d8:	e3510000 	cmp	r1, #0
    10dc:	0a00000d 	beq	1118 <alt_cache_l1_data_invalidate+0x40>
    {
        return ALT_E_BAD_ARG;
    }
    if (((uintptr_t)vaddress & (ALT_CACHE_LINE_SIZE - 1)) != 0)
    10e0:	e310001f 	tst	r0, #31
    10e4:	1a00000b 	bne	1118 <alt_cache_l1_data_invalidate+0x40>
    {
        return ALT_E_BAD_ARG;
    }
    if ((length & (ALT_CACHE_LINE_SIZE - 1)) != 0)
    10e8:	e311001f 	tst	r1, #31
    10ec:	1a000009 	bne	1118 <alt_cache_l1_data_invalidate+0x40>
     / segment.*/

    /* The DCIMVAC uses the MVA format for the register. This is simply the
     / virtual address of the line to be invalidated.
     / See ARMv7-A,R, section B4.2.1. */
    for (va = (uintptr_t)vaddress; va < (uintptr_t)vaddress + length; va += ALT_CACHE_LINE_SIZE)
    10f0:	e0803001 	add	r3, r0, r1
    10f4:	e1500003 	cmp	r0, r3
    10f8:	2a000003 	bcs	110c <alt_cache_l1_data_invalidate+0x34>
        __asm("MCR p15, 0, %[va], c7, c6, 1" : : [va] "r" (va));
#elif defined(__ARMCC_VERSION)
        __asm("MCR p15, 0, va, c7, c6, 1");
#elif defined(_MSC_VER)
#else
        __asm("MCR p15, 0, %0, c7, c6, 1" : : "r" (va));
    10fc:	ee070f36 	mcr	15, 0, r0, cr7, cr6, {1}
     / segment.*/

    /* The DCIMVAC uses the MVA format for the register. This is simply the
     / virtual address of the line to be invalidated.
     / See ARMv7-A,R, section B4.2.1. */
    for (va = (uintptr_t)vaddress; va < (uintptr_t)vaddress + length; va += ALT_CACHE_LINE_SIZE)
    1100:	e2800020 	add	r0, r0, #32
    1104:	e1500003 	cmp	r0, r3
    1108:	3afffffb 	bcc	10fc <alt_cache_l1_data_invalidate+0x24>
#endif
    }

#if !defined(_MSC_VER)
    /* Ensure all cache maintenance operations complete before returning. */
    __asm("dsb");
    110c:	f57ff04f 	dsb	sy
        return ALT_E_BAD_ARG;
    }

    alt_cache_l1_data_invalidate_helper(vaddress, length);

    return ALT_E_SUCCESS;
    1110:	e3a00000 	mov	r0, #0
    1114:	e12fff1e 	bx	lr
    /* Verify preconditions:
     /  - length is non-zero
     /  - address and length are on the cache boundaries */
    if (length == 0)
    {
        return ALT_E_BAD_ARG;
    1118:	e3e00008 	mvn	r0, #8
    }

    alt_cache_l1_data_invalidate_helper(vaddress, length);

    return ALT_E_SUCCESS;
}
    111c:	e12fff1e 	bx	lr

00001120 <alt_cache_l1_data_invalidate_all>:

ALT_STATUS_CODE alt_cache_l1_data_invalidate_all(void)
{
    1120:	e92d0070 	push	{r4, r5, r6}
    __asm("ISB");
    __asm("MRC p15, 1, cssidr, c0, c0, 0");
#elif defined(_MSC_VER)
	cssidr = 0;
#else
    __asm("MCR p15, 2, %0, c0, c0, 0" : : "r" (csselr));
    1124:	e3a03000 	mov	r3, #0
    1128:	ee403f10 	mcr	15, 2, r3, cr0, cr0, {0}
    __asm("ISB");
    112c:	f57ff06f 	isb	sy
    __asm("MRC p15, 1, %0, c0, c0, 0" : "=r" (cssidr));
    1130:	ee303f10 	mrc	15, 1, r3, cr0, cr0, {0}
#endif
    {
    /* Extract the associativity, line length, and number of sets. */
    int linesize      = ALT_CPU_CCSIDR_LINESIZE_VALUE_GET(cssidr) + 2 + 2; 
		/* {log2(line length in words) - 2} + 2 + 2 => (... in bytes) */
    int associativity = ALT_CPU_CCSIDR_ASSOCIATIVITY_VALUE_GET(cssidr) + 1;
    1134:	e7e921d3 	ubfx	r2, r3, #3, #10
    __asm("ISB");
    __asm("MRC p15, 1, %0, c0, c0, 0" : "=r" (cssidr));
#endif
    {
    /* Extract the associativity, line length, and number of sets. */
    int linesize      = ALT_CPU_CCSIDR_LINESIZE_VALUE_GET(cssidr) + 2 + 2; 
    1138:	e203c007 	and	r12, r3, #7
		/* {log2(line length in words) - 2} + 2 + 2 => (... in bytes) */
    int associativity = ALT_CPU_CCSIDR_ASSOCIATIVITY_VALUE_GET(cssidr) + 1;
    113c:	e2822001 	add	r2, r2, #1
    int numsets       = ALT_CPU_CCSIDR_NUMSETS_VALUE_GET(cssidr) + 1;
    1140:	e7ee36d3 	ubfx	r3, r3, #13, #15
    /* Determine the log2 of the associativity and numsets, rounded up */
    int L = linesize; /* log2(line length in bytes) */
    int A = 0;        /* log2(associativity) rounded up */
    int S = 0;        /* log2(number of sets) rounded up */

    while ((1 << A) < associativity)
    1144:	e3520001 	cmp	r2, #1
    __asm("ISB");
    __asm("MRC p15, 1, %0, c0, c0, 0" : "=r" (cssidr));
#endif
    {
    /* Extract the associativity, line length, and number of sets. */
    int linesize      = ALT_CPU_CCSIDR_LINESIZE_VALUE_GET(cssidr) + 2 + 2; 
    1148:	e28cc004 	add	r12, r12, #4
		/* {log2(line length in words) - 2} + 2 + 2 => (... in bytes) */
    int associativity = ALT_CPU_CCSIDR_ASSOCIATIVITY_VALUE_GET(cssidr) + 1;
    int numsets       = ALT_CPU_CCSIDR_NUMSETS_VALUE_GET(cssidr) + 1;
    114c:	e2830001 	add	r0, r3, #1
    /* Determine the log2 of the associativity and numsets, rounded up */
    int L = linesize; /* log2(line length in bytes) */
    int A = 0;        /* log2(associativity) rounded up */
    int S = 0;        /* log2(number of sets) rounded up */

    while ((1 << A) < associativity)
    1150:	0a00001d 	beq	11cc <alt_cache_l1_data_invalidate_all+0xac>
    1154:	e3a03000 	mov	r3, #0
    1158:	e3a01001 	mov	r1, #1
    {
        ++A;
    115c:	e2833001 	add	r3, r3, #1
    /* Determine the log2 of the associativity and numsets, rounded up */
    int L = linesize; /* log2(line length in bytes) */
    int A = 0;        /* log2(associativity) rounded up */
    int S = 0;        /* log2(number of sets) rounded up */

    while ((1 << A) < associativity)
    1160:	e1a05311 	lsl	r5, r1, r3
    1164:	e1520005 	cmp	r2, r5
    1168:	cafffffb 	bgt	115c <alt_cache_l1_data_invalidate_all+0x3c>
    {
        ++A;
    }

    while ((1 << S) < numsets)
    116c:	e3500001 	cmp	r0, #1
    1170:	e2636020 	rsb	r6, r3, #32
    1174:	0a000018 	beq	11dc <alt_cache_l1_data_invalidate_all+0xbc>
    1178:	e3a02000 	mov	r2, #0
    117c:	e3a03001 	mov	r3, #1
    {
        ++S;
    1180:	e2822001 	add	r2, r2, #1
    while ((1 << A) < associativity)
    {
        ++A;
    }

    while ((1 << S) < numsets)
    1184:	e1a01213 	lsl	r1, r3, r2
    1188:	e1500001 	cmp	r0, r1
    118c:	cafffffb 	bgt	1180 <alt_cache_l1_data_invalidate_all+0x60>

    cssidr_decode_helper(false, &L, &A, &S);

    /* Repeatedly call DCISW and loop for every cache way and set. */

    for (way = 0; way < (1 << A); ++way)
    1190:	e3a04000 	mov	r4, #0
    1194:	e1a00614 	lsl	r0, r4, r6
    while ((1 << A) < associativity)
    {
        ++A;
    }

    while ((1 << S) < numsets)
    1198:	e3a03000 	mov	r3, #0
        int set;
        for (set = 0; set < (1 << S); ++set)
        {
            uint32_t way_set_info = 0;
            way_set_info |= way << (32 - A);
            way_set_info |= set << (L);
    119c:	e1802c13 	orr	r2, r0, r3, lsl r12
#elif defined(__ARMCC_VERSION)
            __asm("MCR p15, 0, way_set_info,    c7, c6, 2");
#elif defined(_MSC_VER)

#else
            __asm("MCR p15, 0, %0,              c7, c6, 2" : : "r" (way_set_info));
    11a0:	ee072f56 	mcr	15, 0, r2, cr7, cr6, {2}
    /* Repeatedly call DCISW and loop for every cache way and set. */

    for (way = 0; way < (1 << A); ++way)
    {
        int set;
        for (set = 0; set < (1 << S); ++set)
    11a4:	e2833001 	add	r3, r3, #1
    11a8:	e1510003 	cmp	r1, r3
    11ac:	cafffffa 	bgt	119c <alt_cache_l1_data_invalidate_all+0x7c>

    cssidr_decode_helper(false, &L, &A, &S);

    /* Repeatedly call DCISW and loop for every cache way and set. */

    for (way = 0; way < (1 << A); ++way)
    11b0:	e2844001 	add	r4, r4, #1
    11b4:	e1550004 	cmp	r5, r4
    11b8:	cafffff5 	bgt	1194 <alt_cache_l1_data_invalidate_all+0x74>
        }
    }

#if !defined(_MSC_VER)
	/* Ensure all cache maintenance operations complete before returning. */
	__asm("dsb");
    11bc:	f57ff04f 	dsb	sy
#endif

    return ALT_E_SUCCESS;
}
    11c0:	e3a00000 	mov	r0, #0
    11c4:	e8bd0070 	pop	{r4, r5, r6}
    11c8:	e12fff1e 	bx	lr
    while ((1 << A) < associativity)
    {
        ++A;
    }

    while ((1 << S) < numsets)
    11cc:	e3500001 	cmp	r0, #1
    /* Determine the log2 of the associativity and numsets, rounded up */
    int L = linesize; /* log2(line length in bytes) */
    int A = 0;        /* log2(associativity) rounded up */
    int S = 0;        /* log2(number of sets) rounded up */

    while ((1 << A) < associativity)
    11d0:	e3a06020 	mov	r6, #32
    11d4:	e1a05002 	mov	r5, r2
    {
        ++A;
    }

    while ((1 << S) < numsets)
    11d8:	1affffe6 	bne	1178 <alt_cache_l1_data_invalidate_all+0x58>
    11dc:	e1a01000 	mov	r1, r0
    11e0:	eaffffea 	b	1190 <alt_cache_l1_data_invalidate_all+0x70>

000011e4 <alt_cache_l1_data_enable>:

    return ALT_E_SUCCESS;
}

ALT_STATUS_CODE alt_cache_l1_data_enable(void)
{
    11e4:	e92d4010 	push	{r4, lr}
#elif defined(__ARMCC_VERSION)
    __asm("MRC p15, 0, sctlr,    c1, c0, 0");
#elif defined(_MSC_VER)
	sctlr = 0;
#else
    __asm("MRC p15, 0, %0,       c1, c0, 0" : "=r" (sctlr));
    11e8:	ee114f10 	mrc	15, 0, r4, cr1, cr0, {0}
{
    /* Update SCTLR.C bit (bit 2)
     / See Cortex-A9 TRM, section 4.3.9 */

    uint32_t sctlr = sctlr_read_helper();
    if ((sctlr & ALT_CPU_SCTLR_C_SET_MSK) == 0)
    11ec:	e3140004 	tst	r4, #4
    11f0:	1a000002 	bne	1200 <alt_cache_l1_data_enable+0x1c>
    {
        alt_cache_l1_data_invalidate_all();
    11f4:	ebffffc9 	bl	1120 <alt_cache_l1_data_invalidate_all>

        sctlr |= ALT_CPU_SCTLR_C_SET_MSK;
    11f8:	e3844004 	orr	r4, r4, #4
    __asm("MCR p15, 0, %[sctlr], c1, c0, 0" : : [sctlr] "r" (sctlr));
#elif defined(__ARMCC_VERSION)
    __asm("MCR p15, 0, sctlr,    c1, c0, 0");
#elif defined(_MSC_VER)
#else
    __asm("MCR p15, 0, %0,       c1, c0, 0" : : "r" (sctlr));
    11fc:	ee014f10 	mcr	15, 0, r4, cr1, cr0, {0}
        sctlr |= ALT_CPU_SCTLR_C_SET_MSK;
        sctlr_write_helper(sctlr);
    }

    return ALT_E_SUCCESS;
}
    1200:	e3a00000 	mov	r0, #0
    1204:	e8bd8010 	pop	{r4, pc}

00001208 <alt_cache_l1_data_clean>:
#elif defined(__ARMCC_VERSION)
    __asm("MRC p15, 0, sctlr,    c1, c0, 0");
#elif defined(_MSC_VER)
	sctlr = 0;
#else
    __asm("MRC p15, 0, %0,       c1, c0, 0" : "=r" (sctlr));
    1208:	ee113f10 	mrc	15, 0, r3, cr1, cr0, {0}
{
    /* Query SCTLR.C bit (bit 2)
     / See Cortex-A9 TRM, section 4.3.9 */

    uint32_t sctlr = sctlr_read_helper();
    if ( (sctlr & ALT_CPU_SCTLR_C_SET_MSK) != 0 )
    120c:	e3130004 	tst	r3, #4
    1210:	1a000001 	bne	121c <alt_cache_l1_data_clean+0x14>
     /  - l1 data cache is turned on before we start trying to clear it
     /  - length is non-zero
     /  - address and length are on the cache boundaries */
    if ( ! alt_cache_l1_data_is_enabled())
    {
        return ALT_E_BAD_OPERATION;
    1214:	e3e00009 	mvn	r0, #9
    1218:	e12fff1e 	bx	lr
    }
    if (length == 0)
    121c:	e3510000 	cmp	r1, #0
    1220:	0a00000d 	beq	125c <alt_cache_l1_data_clean+0x54>
    {
        return ALT_E_BAD_ARG;
    }
    if (((uintptr_t)vaddress & (ALT_CACHE_LINE_SIZE - 1)) != 0)
    1224:	e310001f 	tst	r0, #31
    1228:	1a00000b 	bne	125c <alt_cache_l1_data_clean+0x54>
    {
        return ALT_E_BAD_ARG;
    }
    if ((length & (ALT_CACHE_LINE_SIZE - 1)) != 0)
    122c:	e311001f 	tst	r1, #31
    1230:	1a000009 	bne	125c <alt_cache_l1_data_clean+0x54>
     / point of Coherency) and loop for the length of the segment. */

    /* The DCCMVAC uses the MVA format for the register. This is simply the
     / virtual address of the line to be invalidated.
     / See ARMv7-A,R, section B4.2.1. */
    for (va = (uintptr_t)vaddress; va < (uintptr_t)vaddress + length; va += ALT_CACHE_LINE_SIZE)
    1234:	e0801001 	add	r1, r0, r1
    1238:	e1500001 	cmp	r0, r1
    123c:	2a000003 	bcs	1250 <alt_cache_l1_data_clean+0x48>
        __asm("MCR p15, 0, %[va], c7, c10, 1" : : [va] "r" (va));
#elif defined(__ARMCC_VERSION)
        __asm("MCR p15, 0, va, c7, c10, 1");
#elif defined(_MSC_VER)
#else
        __asm("MCR p15, 0, %0, c7, c10, 1" : : "r" (va));
    1240:	ee070f3a 	mcr	15, 0, r0, cr7, cr10, {1}
     / point of Coherency) and loop for the length of the segment. */

    /* The DCCMVAC uses the MVA format for the register. This is simply the
     / virtual address of the line to be invalidated.
     / See ARMv7-A,R, section B4.2.1. */
    for (va = (uintptr_t)vaddress; va < (uintptr_t)vaddress + length; va += ALT_CACHE_LINE_SIZE)
    1244:	e2800020 	add	r0, r0, #32
    1248:	e1510000 	cmp	r1, r0
    124c:	8afffffb 	bhi	1240 <alt_cache_l1_data_clean+0x38>
#endif
    }

#if !defined(_MSC_VER)
	/* Ensure all cache maintenance operations complete before returning. */
	__asm("dsb");
    1250:	f57ff04f 	dsb	sy
        return ALT_E_BAD_ARG;
    }

    alt_cache_l1_data_clean_helper(vaddress, length);

    return ALT_E_SUCCESS;
    1254:	e3a00000 	mov	r0, #0
    1258:	e12fff1e 	bx	lr
    {
        return ALT_E_BAD_ARG;
    }
    if (((uintptr_t)vaddress & (ALT_CACHE_LINE_SIZE - 1)) != 0)
    {
        return ALT_E_BAD_ARG;
    125c:	e3e00008 	mvn	r0, #8
    1260:	e12fff1e 	bx	lr

00001264 <alt_cache_l1_data_clean_all>:
#elif defined(__ARMCC_VERSION)
    __asm("MRC p15, 0, sctlr,    c1, c0, 0");
#elif defined(_MSC_VER)
	sctlr = 0;
#else
    __asm("MRC p15, 0, %0,       c1, c0, 0" : "=r" (sctlr));
    1264:	ee113f10 	mrc	15, 0, r3, cr1, cr0, {0}
{
    /* Query SCTLR.C bit (bit 2)
     / See Cortex-A9 TRM, section 4.3.9 */

    uint32_t sctlr = sctlr_read_helper();
    if ( (sctlr & ALT_CPU_SCTLR_C_SET_MSK) != 0 )
    1268:	e3130004 	tst	r3, #4

    return ALT_E_SUCCESS;
}

ALT_STATUS_CODE alt_cache_l1_data_clean_all(void)
{
    126c:	e92d0070 	push	{r4, r5, r6}
    int way;

    /* Ensure that it is turned on before we start trying to clear it */
    if ( ! alt_cache_l1_data_is_enabled())
    {
        return ALT_E_BAD_OPERATION;
    1270:	03e00009 	mvneq	r0, #9
{
    /* Query SCTLR.C bit (bit 2)
     / See Cortex-A9 TRM, section 4.3.9 */

    uint32_t sctlr = sctlr_read_helper();
    if ( (sctlr & ALT_CPU_SCTLR_C_SET_MSK) != 0 )
    1274:	0a000029 	beq	1320 <alt_cache_l1_data_clean_all+0xbc>
    __asm("ISB");
    __asm("MRC p15, 1, cssidr, c0, c0, 0");
#elif defined(_MSC_VER)
	cssidr = 0;
#else
    __asm("MCR p15, 2, %0, c0, c0, 0" : : "r" (csselr));
    1278:	e3a03000 	mov	r3, #0
    127c:	ee403f10 	mcr	15, 2, r3, cr0, cr0, {0}
    __asm("ISB");
    1280:	f57ff06f 	isb	sy
    __asm("MRC p15, 1, %0, c0, c0, 0" : "=r" (cssidr));
    1284:	ee303f10 	mrc	15, 1, r3, cr0, cr0, {0}
#endif
    {
    /* Extract the associativity, line length, and number of sets. */
    int linesize      = ALT_CPU_CCSIDR_LINESIZE_VALUE_GET(cssidr) + 2 + 2; 
		/* {log2(line length in words) - 2} + 2 + 2 => (... in bytes) */
    int associativity = ALT_CPU_CCSIDR_ASSOCIATIVITY_VALUE_GET(cssidr) + 1;
    1288:	e7e921d3 	ubfx	r2, r3, #3, #10
    __asm("ISB");
    __asm("MRC p15, 1, %0, c0, c0, 0" : "=r" (cssidr));
#endif
    {
    /* Extract the associativity, line length, and number of sets. */
    int linesize      = ALT_CPU_CCSIDR_LINESIZE_VALUE_GET(cssidr) + 2 + 2; 
    128c:	e203c007 	and	r12, r3, #7
		/* {log2(line length in words) - 2} + 2 + 2 => (... in bytes) */
    int associativity = ALT_CPU_CCSIDR_ASSOCIATIVITY_VALUE_GET(cssidr) + 1;
    1290:	e2822001 	add	r2, r2, #1
    int numsets       = ALT_CPU_CCSIDR_NUMSETS_VALUE_GET(cssidr) + 1;
    1294:	e7ee36d3 	ubfx	r3, r3, #13, #15
    /* Determine the log2 of the associativity and numsets, rounded up */
    int L = linesize; /* log2(line length in bytes) */
    int A = 0;        /* log2(associativity) rounded up */
    int S = 0;        /* log2(number of sets) rounded up */

    while ((1 << A) < associativity)
    1298:	e3520001 	cmp	r2, #1
    __asm("ISB");
    __asm("MRC p15, 1, %0, c0, c0, 0" : "=r" (cssidr));
#endif
    {
    /* Extract the associativity, line length, and number of sets. */
    int linesize      = ALT_CPU_CCSIDR_LINESIZE_VALUE_GET(cssidr) + 2 + 2; 
    129c:	e28cc004 	add	r12, r12, #4
		/* {log2(line length in words) - 2} + 2 + 2 => (... in bytes) */
    int associativity = ALT_CPU_CCSIDR_ASSOCIATIVITY_VALUE_GET(cssidr) + 1;
    int numsets       = ALT_CPU_CCSIDR_NUMSETS_VALUE_GET(cssidr) + 1;
    12a0:	e2830001 	add	r0, r3, #1
    /* Determine the log2 of the associativity and numsets, rounded up */
    int L = linesize; /* log2(line length in bytes) */
    int A = 0;        /* log2(associativity) rounded up */
    int S = 0;        /* log2(number of sets) rounded up */

    while ((1 << A) < associativity)
    12a4:	03a06020 	moveq	r6, #32
    12a8:	01a05002 	moveq	r5, r2
    12ac:	0a000006 	beq	12cc <alt_cache_l1_data_clean_all+0x68>
    12b0:	e3a03000 	mov	r3, #0
    12b4:	e3a01001 	mov	r1, #1
    {
        ++A;
    12b8:	e2833001 	add	r3, r3, #1
    /* Determine the log2 of the associativity and numsets, rounded up */
    int L = linesize; /* log2(line length in bytes) */
    int A = 0;        /* log2(associativity) rounded up */
    int S = 0;        /* log2(number of sets) rounded up */

    while ((1 << A) < associativity)
    12bc:	e1a05311 	lsl	r5, r1, r3
    12c0:	e1520005 	cmp	r2, r5
    12c4:	cafffffb 	bgt	12b8 <alt_cache_l1_data_clean_all+0x54>
    12c8:	e2636020 	rsb	r6, r3, #32
    {
        ++A;
    }

    while ((1 << S) < numsets)
    12cc:	e3500001 	cmp	r0, #1
    12d0:	0a000014 	beq	1328 <alt_cache_l1_data_clean_all+0xc4>
    12d4:	e3a02000 	mov	r2, #0
    12d8:	e3a03001 	mov	r3, #1
    {
        ++S;
    12dc:	e2822001 	add	r2, r2, #1
    while ((1 << A) < associativity)
    {
        ++A;
    }

    while ((1 << S) < numsets)
    12e0:	e1a01213 	lsl	r1, r3, r2
    12e4:	e1500001 	cmp	r0, r1
    12e8:	cafffffb 	bgt	12dc <alt_cache_l1_data_clean_all+0x78>
    }
    cssidr_decode_helper(false, &L, &A, &S);

    /* Repeatedly call DCCSW and loop for every cache way and set. */

    for (way = 0; way < (1 << A); ++way)
    12ec:	e3a04000 	mov	r4, #0
    12f0:	e1a00614 	lsl	r0, r4, r6
    while ((1 << A) < associativity)
    {
        ++A;
    }

    while ((1 << S) < numsets)
    12f4:	e3a03000 	mov	r3, #0
        int set;
        for (set = 0; set < (1 << S); ++set)
        {
            uint32_t way_set_info = 0;
            way_set_info |= way << (32 - A);
            way_set_info |= set << (L);
    12f8:	e1802c13 	orr	r2, r0, r3, lsl r12
            __asm("MCR p15, 0, %[way_set_info], c7, c10, 2" : : [way_set_info] "r" (way_set_info));
#elif defined(__ARMCC_VERSION)
            __asm("MCR p15, 0, way_set_info,    c7, c10, 2");
#elif defined(_MSC_VER)
#else
            __asm("MCR p15, 0, %0,              c7, c10, 2" : : "r" (way_set_info));
    12fc:	ee072f5a 	mcr	15, 0, r2, cr7, cr10, {2}
    /* Repeatedly call DCCSW and loop for every cache way and set. */

    for (way = 0; way < (1 << A); ++way)
    {
        int set;
        for (set = 0; set < (1 << S); ++set)
    1300:	e2833001 	add	r3, r3, #1
    1304:	e1510003 	cmp	r1, r3
    1308:	cafffffa 	bgt	12f8 <alt_cache_l1_data_clean_all+0x94>
    }
    cssidr_decode_helper(false, &L, &A, &S);

    /* Repeatedly call DCCSW and loop for every cache way and set. */

    for (way = 0; way < (1 << A); ++way)
    130c:	e2844001 	add	r4, r4, #1
    1310:	e1550004 	cmp	r5, r4
    1314:	cafffff5 	bgt	12f0 <alt_cache_l1_data_clean_all+0x8c>
        }
    }

#if !defined(_MSC_VER)
	/* Ensure all cache maintenance operations complete before returning. */
	__asm("dsb");
    1318:	f57ff04f 	dsb	sy
#endif

    return ALT_E_SUCCESS;
    131c:	e3a00000 	mov	r0, #0
}
    1320:	e8bd0070 	pop	{r4, r5, r6}
    1324:	e12fff1e 	bx	lr
    while ((1 << A) < associativity)
    {
        ++A;
    }

    while ((1 << S) < numsets)
    1328:	e1a01000 	mov	r1, r0
    132c:	eaffffee 	b	12ec <alt_cache_l1_data_clean_all+0x88>

00001330 <alt_cache_l1_data_disable>:

    return ALT_E_SUCCESS;
}

ALT_STATUS_CODE alt_cache_l1_data_disable(void)
{
    1330:	e92d4010 	push	{r4, lr}
#elif defined(__ARMCC_VERSION)
    __asm("MRC p15, 0, sctlr,    c1, c0, 0");
#elif defined(_MSC_VER)
	sctlr = 0;
#else
    __asm("MRC p15, 0, %0,       c1, c0, 0" : "=r" (sctlr));
    1334:	ee114f10 	mrc	15, 0, r4, cr1, cr0, {0}
{
    /* Update SCTLR.C bit (bit 2)
     / See Cortex-A9 TRM, section 4.3.9 */

    uint32_t sctlr = sctlr_read_helper();
    if ((sctlr & ALT_CPU_SCTLR_C_SET_MSK) != 0)
    1338:	e3140004 	tst	r4, #4
    133c:	0a000002 	beq	134c <alt_cache_l1_data_disable+0x1c>
    {
        alt_cache_l1_data_clean_all();
    1340:	ebffffc7 	bl	1264 <alt_cache_l1_data_clean_all>

        sctlr &= ~ALT_CPU_SCTLR_C_SET_MSK;
    1344:	e3c44004 	bic	r4, r4, #4
    __asm("MCR p15, 0, %[sctlr], c1, c0, 0" : : [sctlr] "r" (sctlr));
#elif defined(__ARMCC_VERSION)
    __asm("MCR p15, 0, sctlr,    c1, c0, 0");
#elif defined(_MSC_VER)
#else
    __asm("MCR p15, 0, %0,       c1, c0, 0" : : "r" (sctlr));
    1348:	ee014f10 	mcr	15, 0, r4, cr1, cr0, {0}

        sctlr_write_helper(sctlr);
    }

    return ALT_E_SUCCESS;
}
    134c:	e3a00000 	mov	r0, #0
    1350:	e8bd8010 	pop	{r4, pc}

00001354 <alt_cache_l1_disable_all>:

    return ALT_E_SUCCESS;
}

ALT_STATUS_CODE alt_cache_l1_disable_all(void)
{
    1354:	e92d4010 	push	{r4, lr}
#elif defined(__ARMCC_VERSION)
    __asm("MRC p15, 0, actlr,    c1, c0, 1");
#elif defined(_MSC_VER)
	actlr = 0;
#else
    __asm("MRC p15, 0, %0,       c1, c0, 1" : "=r" (actlr));
    1358:	ee113f30 	mrc	15, 0, r3, cr1, cr0, {1}
}

ALT_STATUS_CODE alt_cache_l1_parity_disable(void)
{
    uint32_t actlr = actlr_read_helper();
    actlr &= ~ALT_CPU_ACTLR_PARITYON_SET_MSK;
    135c:	e3c33c02 	bic	r3, r3, #512	; 0x200
    __asm("MCR p15, 0, %[actlr], c1, c0, 1" : : [actlr] "r" (actlr));
#elif defined(__ARMCC_VERSION)
    __asm("MCR p15, 0, actlr,    c1, c0, 1");
#elif defined(_MSC_VER)
#else
    __asm("MCR p15, 0, %0,       c1, c0, 1" : : "r" (actlr));
    1360:	ee013f30 	mcr	15, 0, r3, cr1, cr0, {1}
#elif defined(__ARMCC_VERSION)
    __asm("MRC p15, 0, sctlr,    c1, c0, 0");
#elif defined(_MSC_VER)
	sctlr = 0;
#else
    __asm("MRC p15, 0, %0,       c1, c0, 0" : "=r" (sctlr));
    1364:	ee113f10 	mrc	15, 0, r3, cr1, cr0, {0}
{
    /* Update SCTLR.I bit (bit 12)
     / See Cortex-A9 TRM, section 4.3.9 */

    uint32_t sctlr = sctlr_read_helper();
    sctlr &= ~ALT_CPU_SCTLR_I_SET_MSK;
    1368:	e3c33a01 	bic	r3, r3, #4096	; 0x1000
    __asm("MCR p15, 0, %[sctlr], c1, c0, 0" : : [sctlr] "r" (sctlr));
#elif defined(__ARMCC_VERSION)
    __asm("MCR p15, 0, sctlr,    c1, c0, 0");
#elif defined(_MSC_VER)
#else
    __asm("MCR p15, 0, %0,       c1, c0, 0" : : "r" (sctlr));
    136c:	ee013f10 	mcr	15, 0, r3, cr1, cr0, {0}
#elif defined(__ARMCC_VERSION)
    __asm("MRC p15, 0, sctlr,    c1, c0, 0");
#elif defined(_MSC_VER)
	sctlr = 0;
#else
    __asm("MRC p15, 0, %0,       c1, c0, 0" : "=r" (sctlr));
    1370:	ee114f10 	mrc	15, 0, r4, cr1, cr0, {0}
{
    /* Update SCTLR.C bit (bit 2)
     / See Cortex-A9 TRM, section 4.3.9 */

    uint32_t sctlr = sctlr_read_helper();
    if ((sctlr & ALT_CPU_SCTLR_C_SET_MSK) != 0)
    1374:	e3140004 	tst	r4, #4
    1378:	0a000002 	beq	1388 <alt_cache_l1_disable_all+0x34>
    {
        alt_cache_l1_data_clean_all();
    137c:	ebffffb8 	bl	1264 <alt_cache_l1_data_clean_all>

        sctlr &= ~ALT_CPU_SCTLR_C_SET_MSK;
    1380:	e3c44004 	bic	r4, r4, #4
    __asm("MCR p15, 0, %[sctlr], c1, c0, 0" : : [sctlr] "r" (sctlr));
#elif defined(__ARMCC_VERSION)
    __asm("MCR p15, 0, sctlr,    c1, c0, 0");
#elif defined(_MSC_VER)
#else
    __asm("MCR p15, 0, %0,       c1, c0, 0" : : "r" (sctlr));
    1384:	ee014f10 	mcr	15, 0, r4, cr1, cr0, {0}
#elif defined(__ARMCC_VERSION)
    __asm("MRC p15, 0, sctlr,    c1, c0, 0");
#elif defined(_MSC_VER)
	sctlr = 0;
#else
    __asm("MRC p15, 0, %0,       c1, c0, 0" : "=r" (sctlr));
    1388:	ee113f10 	mrc	15, 0, r3, cr1, cr0, {0}
}

ALT_STATUS_CODE alt_cache_l1_branch_disable(void)
{
    uint32_t sctlr = sctlr_read_helper();
    sctlr &= ~ALT_CPU_SCTLR_Z_SET_MSK;
    138c:	e3c33b02 	bic	r3, r3, #2048	; 0x800
    __asm("MCR p15, 0, %[sctlr], c1, c0, 0" : : [sctlr] "r" (sctlr));
#elif defined(__ARMCC_VERSION)
    __asm("MCR p15, 0, sctlr,    c1, c0, 0");
#elif defined(_MSC_VER)
#else
    __asm("MCR p15, 0, %0,       c1, c0, 0" : : "r" (sctlr));
    1390:	ee013f10 	mcr	15, 0, r3, cr1, cr0, {0}
#elif defined(__ARMCC_VERSION)
    __asm("MRC p15, 0, actlr,    c1, c0, 1");
#elif defined(_MSC_VER)
	actlr = 0;
#else
    __asm("MRC p15, 0, %0,       c1, c0, 1" : "=r" (actlr));
    1394:	ee113f30 	mrc	15, 0, r3, cr1, cr0, {1}
}

ALT_STATUS_CODE alt_cache_l1_prefetch_disable(void)
{
    uint32_t actlr = actlr_read_helper();
    actlr &= ~ALT_CPU_ACTLR_L1PREFETCHEN_SET_MSK;
    1398:	e3c33004 	bic	r3, r3, #4
    __asm("MCR p15, 0, %[actlr], c1, c0, 1" : : [actlr] "r" (actlr));
#elif defined(__ARMCC_VERSION)
    __asm("MCR p15, 0, actlr,    c1, c0, 1");
#elif defined(_MSC_VER)
#else
    __asm("MCR p15, 0, %0,       c1, c0, 1" : : "r" (actlr));
    139c:	ee013f30 	mcr	15, 0, r3, cr1, cr0, {1}
    alt_cache_l1_data_disable();
    alt_cache_l1_branch_disable();
    alt_cache_l1_prefetch_disable();

    return ALT_E_SUCCESS;
}
    13a0:	e3a00000 	mov	r0, #0
    13a4:	e8bd8010 	pop	{r4, pc}

000013a8 <alt_cache_system_disable>:
    return ALT_E_SUCCESS;
}

bool alt_cache_l2_is_enabled(void)
{
    uint32_t ctrl = alt_read_word(ALT_MPUL2_CONTROL_ADDR);
    13a8:	e3e01801 	mvn	r1, #65536	; 0x10000

    return ALT_E_SUCCESS;
}

ALT_STATUS_CODE alt_cache_system_disable(void)
{
    13ac:	e92d4010 	push	{r4, lr}
    return ALT_E_SUCCESS;
}

bool alt_cache_l2_is_enabled(void)
{
    uint32_t ctrl = alt_read_word(ALT_MPUL2_CONTROL_ADDR);
    13b0:	e5113eff 	ldr	r3, [r1, #-3839]	; 0xfffff101
    if ((ctrl & ALT_MPUL2_CONTROL_EN_SET_MSK) != 0)
    13b4:	e3130001 	tst	r3, #1
    13b8:	0a00000a 	beq	13e8 <alt_cache_system_disable+0x40>
    int i = 0;

    /*Clean and invalidate by way, all ways.
    /  For more information, see L2C-310, section 3.3.10. */

    alt_write_word(ALT_MPUL2_CLEAN_INV_WAY_ADDR, alt_cache_l2_waymask);
    13bc:	e3093fe0 	movw	r3, #40928	; 0x9fe0
    13c0:	e3403001 	movt	r3, #1
    13c4:	e5933000 	ldr	r3, [r3]
    13c8:	e5013803 	str	r3, [r1, #-2051]	; 0xfffff7fd

    while (alt_read_word(ALT_MPUL2_CLEAN_INV_WAY_ADDR))
    13cc:	e5113803 	ldr	r3, [r1, #-2051]	; 0xfffff7fd
    13d0:	e3530000 	cmp	r3, #0
    13d4:	13a03801 	movne	r3, #65536	; 0x10000
    13d8:	1a00001f 	bne	145c <alt_cache_system_disable+0xb4>
ALT_STATUS_CODE alt_cache_l2_disable(void)
{
    if (alt_cache_l2_is_enabled())
    {
        alt_cache_l2_purge_all();
        alt_write_word(ALT_MPUL2_CONTROL_ADDR, 0);
    13dc:	e3a02000 	mov	r2, #0
    13e0:	e3e03801 	mvn	r3, #65536	; 0x10000
    13e4:	e5032eff 	str	r2, [r3, #-3839]	; 0xfffff101
    return ALT_E_SUCCESS;
}

ALT_STATUS_CODE alt_cache_l2_parity_disable(void)
{
    alt_clrbits_word(ALT_MPUL2_AUX_CONTROL_ADDR, ALT_MPUL2_AUX_CONTROL_PARITY_EN_SET_MSK);
    13e8:	e3e03801 	mvn	r3, #65536	; 0x10000
    13ec:	e5131efb 	ldr	r1, [r3, #-3835]	; 0xfffff105
#elif defined(__ARMCC_VERSION)
    __asm("MRC p15, 0, actlr,    c1, c0, 1");
#elif defined(_MSC_VER)
	actlr = 0;
#else
    __asm("MRC p15, 0, %0,       c1, c0, 1" : "=r" (actlr));
    13f0:	ee112f30 	mrc	15, 0, r2, cr1, cr0, {1}
}

ALT_STATUS_CODE alt_cache_l1_parity_disable(void)
{
    uint32_t actlr = actlr_read_helper();
    actlr &= ~ALT_CPU_ACTLR_PARITYON_SET_MSK;
    13f4:	e3c22c02 	bic	r2, r2, #512	; 0x200
    return ALT_E_SUCCESS;
}

ALT_STATUS_CODE alt_cache_l2_parity_disable(void)
{
    alt_clrbits_word(ALT_MPUL2_AUX_CONTROL_ADDR, ALT_MPUL2_AUX_CONTROL_PARITY_EN_SET_MSK);
    13f8:	e3c11602 	bic	r1, r1, #2097152	; 0x200000
    13fc:	e5031efb 	str	r1, [r3, #-3835]	; 0xfffff105
{
    /* Use the Prefetch Control Register instead of Aux Control. This is
     / because the Prefetch Control can be changed while the L2 is enabled.
     / For more information, see L2C-310, section 3.3.14. */

    alt_clrbits_word(ALT_MPUL2_PREFETCH_CTRL_ADDR, ALT_MPUL2_PREFETCH_CTRL_PF_EN_SET_MSK);
    1400:	e513109f 	ldr	r1, [r3, #-159]	; 0xffffff61
    1404:	e3c11203 	bic	r1, r1, #805306368	; 0x30000000
    1408:	e503109f 	str	r1, [r3, #-159]	; 0xffffff61
    __asm("MCR p15, 0, %[actlr], c1, c0, 1" : : [actlr] "r" (actlr));
#elif defined(__ARMCC_VERSION)
    __asm("MCR p15, 0, actlr,    c1, c0, 1");
#elif defined(_MSC_VER)
#else
    __asm("MCR p15, 0, %0,       c1, c0, 1" : : "r" (actlr));
    140c:	ee012f30 	mcr	15, 0, r2, cr1, cr0, {1}
#elif defined(__ARMCC_VERSION)
    __asm("MRC p15, 0, sctlr,    c1, c0, 0");
#elif defined(_MSC_VER)
	sctlr = 0;
#else
    __asm("MRC p15, 0, %0,       c1, c0, 0" : "=r" (sctlr));
    1410:	ee113f10 	mrc	15, 0, r3, cr1, cr0, {0}
{
    /* Update SCTLR.I bit (bit 12)
     / See Cortex-A9 TRM, section 4.3.9 */

    uint32_t sctlr = sctlr_read_helper();
    sctlr &= ~ALT_CPU_SCTLR_I_SET_MSK;
    1414:	e3c33a01 	bic	r3, r3, #4096	; 0x1000
    __asm("MCR p15, 0, %[sctlr], c1, c0, 0" : : [sctlr] "r" (sctlr));
#elif defined(__ARMCC_VERSION)
    __asm("MCR p15, 0, sctlr,    c1, c0, 0");
#elif defined(_MSC_VER)
#else
    __asm("MCR p15, 0, %0,       c1, c0, 0" : : "r" (sctlr));
    1418:	ee013f10 	mcr	15, 0, r3, cr1, cr0, {0}
#elif defined(__ARMCC_VERSION)
    __asm("MRC p15, 0, sctlr,    c1, c0, 0");
#elif defined(_MSC_VER)
	sctlr = 0;
#else
    __asm("MRC p15, 0, %0,       c1, c0, 0" : "=r" (sctlr));
    141c:	ee114f10 	mrc	15, 0, r4, cr1, cr0, {0}
{
    /* Update SCTLR.C bit (bit 2)
     / See Cortex-A9 TRM, section 4.3.9 */

    uint32_t sctlr = sctlr_read_helper();
    if ((sctlr & ALT_CPU_SCTLR_C_SET_MSK) != 0)
    1420:	e3140004 	tst	r4, #4
    1424:	0a000002 	beq	1434 <alt_cache_system_disable+0x8c>
    {
        alt_cache_l1_data_clean_all();
    1428:	ebffff8d 	bl	1264 <alt_cache_l1_data_clean_all>

        sctlr &= ~ALT_CPU_SCTLR_C_SET_MSK;
    142c:	e3c44004 	bic	r4, r4, #4
    __asm("MCR p15, 0, %[sctlr], c1, c0, 0" : : [sctlr] "r" (sctlr));
#elif defined(__ARMCC_VERSION)
    __asm("MCR p15, 0, sctlr,    c1, c0, 0");
#elif defined(_MSC_VER)
#else
    __asm("MCR p15, 0, %0,       c1, c0, 0" : : "r" (sctlr));
    1430:	ee014f10 	mcr	15, 0, r4, cr1, cr0, {0}
#elif defined(__ARMCC_VERSION)
    __asm("MRC p15, 0, sctlr,    c1, c0, 0");
#elif defined(_MSC_VER)
	sctlr = 0;
#else
    __asm("MRC p15, 0, %0,       c1, c0, 0" : "=r" (sctlr));
    1434:	ee113f10 	mrc	15, 0, r3, cr1, cr0, {0}
}

ALT_STATUS_CODE alt_cache_l1_branch_disable(void)
{
    uint32_t sctlr = sctlr_read_helper();
    sctlr &= ~ALT_CPU_SCTLR_Z_SET_MSK;
    1438:	e3c33b02 	bic	r3, r3, #2048	; 0x800
    __asm("MCR p15, 0, %[sctlr], c1, c0, 0" : : [sctlr] "r" (sctlr));
#elif defined(__ARMCC_VERSION)
    __asm("MCR p15, 0, sctlr,    c1, c0, 0");
#elif defined(_MSC_VER)
#else
    __asm("MCR p15, 0, %0,       c1, c0, 0" : : "r" (sctlr));
    143c:	ee013f10 	mcr	15, 0, r3, cr1, cr0, {0}
#elif defined(__ARMCC_VERSION)
    __asm("MRC p15, 0, actlr,    c1, c0, 1");
#elif defined(_MSC_VER)
	actlr = 0;
#else
    __asm("MRC p15, 0, %0,       c1, c0, 1" : "=r" (actlr));
    1440:	ee113f30 	mrc	15, 0, r3, cr1, cr0, {1}
}

ALT_STATUS_CODE alt_cache_l1_prefetch_disable(void)
{
    uint32_t actlr = actlr_read_helper();
    actlr &= ~ALT_CPU_ACTLR_L1PREFETCHEN_SET_MSK;
    1444:	e3c33004 	bic	r3, r3, #4
    __asm("MCR p15, 0, %[actlr], c1, c0, 1" : : [actlr] "r" (actlr));
#elif defined(__ARMCC_VERSION)
    __asm("MCR p15, 0, actlr,    c1, c0, 1");
#elif defined(_MSC_VER)
#else
    __asm("MCR p15, 0, %0,       c1, c0, 1" : : "r" (actlr));
    1448:	ee013f30 	mcr	15, 0, r3, cr1, cr0, {1}
    alt_cache_l2_uninit();

    alt_cache_l1_disable_all();

    return ALT_E_SUCCESS;
}
    144c:	e3a00000 	mov	r0, #0
    1450:	e8bd8010 	pop	{r4, pc}

    while (alt_read_word(ALT_MPUL2_CLEAN_INV_WAY_ADDR))
    {
        /* Background operation still in progress. */

        if (i == ALT_CACHE_L2_PURGE_ALL_TIMEOUT)
    1454:	e2533001 	subs	r3, r3, #1
    1458:	0affffdf 	beq	13dc <alt_cache_system_disable+0x34>
    /*Clean and invalidate by way, all ways.
    /  For more information, see L2C-310, section 3.3.10. */

    alt_write_word(ALT_MPUL2_CLEAN_INV_WAY_ADDR, alt_cache_l2_waymask);

    while (alt_read_word(ALT_MPUL2_CLEAN_INV_WAY_ADDR))
    145c:	e5112803 	ldr	r2, [r1, #-2051]	; 0xfffff7fd
    1460:	e3520000 	cmp	r2, #0
    1464:	1afffffa 	bne	1454 <alt_cache_system_disable+0xac>
    1468:	eaffffdb 	b	13dc <alt_cache_system_disable+0x34>

0000146c <alt_cache_l1_data_purge>:
#elif defined(__ARMCC_VERSION)
    __asm("MRC p15, 0, sctlr,    c1, c0, 0");
#elif defined(_MSC_VER)
	sctlr = 0;
#else
    __asm("MRC p15, 0, %0,       c1, c0, 0" : "=r" (sctlr));
    146c:	ee113f10 	mrc	15, 0, r3, cr1, cr0, {0}
{
    /* Query SCTLR.C bit (bit 2)
     / See Cortex-A9 TRM, section 4.3.9 */

    uint32_t sctlr = sctlr_read_helper();
    if ( (sctlr & ALT_CPU_SCTLR_C_SET_MSK) != 0 )
    1470:	e3130004 	tst	r3, #4
    1474:	1a000001 	bne	1480 <alt_cache_l1_data_purge+0x14>
     /  - l1 data cache is turned on before we start trying to clear it
     /  - length is non-zero
     /  - address and length are on the cache boundaries */
    if ( ! alt_cache_l1_data_is_enabled())
    {
        return ALT_E_BAD_OPERATION;
    1478:	e3e00009 	mvn	r0, #9
    147c:	e12fff1e 	bx	lr
    }
    if (length == 0)
    1480:	e3510000 	cmp	r1, #0
    1484:	0a00000d 	beq	14c0 <alt_cache_l1_data_purge+0x54>
    {
        return ALT_E_BAD_ARG;
    }
    if (((uintptr_t)vaddress & (ALT_CACHE_LINE_SIZE - 1)) != 0)
    1488:	e310001f 	tst	r0, #31
    148c:	1a00000b 	bne	14c0 <alt_cache_l1_data_purge+0x54>
    {
        return ALT_E_BAD_ARG;
    }
    if ((length & (ALT_CACHE_LINE_SIZE - 1)) != 0)
    1490:	e311001f 	tst	r1, #31
    1494:	1a000009 	bne	14c0 <alt_cache_l1_data_purge+0x54>
     / segment. */

    /* The DCCIMVAC uses the MVA format for the register. This is simply the
     / virtual address of the line to be invalidated.
     / See ARMv7-A,R, section B4.2.1. */
    for (va = (uintptr_t)vaddress; va < (uintptr_t)vaddress + length; va += ALT_CACHE_LINE_SIZE)
    1498:	e0801001 	add	r1, r0, r1
    149c:	e1500001 	cmp	r0, r1
    14a0:	2a000003 	bcs	14b4 <alt_cache_l1_data_purge+0x48>
        __asm("MCR p15, 0, %[va], c7, c14, 1" : : [va] "r" (va));
#elif defined(__ARMCC_VERSION)
        __asm("MCR p15, 0, va,    c7, c14, 1");
#elif defined(_MSC_VER)
#else
        __asm("MCR p15, 0, %0,    c7, c14, 1" : : "r" (va));
    14a4:	ee070f3e 	mcr	15, 0, r0, cr7, cr14, {1}
     / segment. */

    /* The DCCIMVAC uses the MVA format for the register. This is simply the
     / virtual address of the line to be invalidated.
     / See ARMv7-A,R, section B4.2.1. */
    for (va = (uintptr_t)vaddress; va < (uintptr_t)vaddress + length; va += ALT_CACHE_LINE_SIZE)
    14a8:	e2800020 	add	r0, r0, #32
    14ac:	e1510000 	cmp	r1, r0
    14b0:	8afffffb 	bhi	14a4 <alt_cache_l1_data_purge+0x38>
#endif
    }

#if !defined(_MSC_VER)
	/* Ensure all cache maintenance operations complete before returning. */
	__asm("dsb");
    14b4:	f57ff04f 	dsb	sy
        return ALT_E_BAD_ARG;
    }

    alt_cache_l1_data_purge_helper(vaddress, length);

    return ALT_E_SUCCESS;
    14b8:	e3a00000 	mov	r0, #0
    14bc:	e12fff1e 	bx	lr
    {
        return ALT_E_BAD_ARG;
    }
    if (((uintptr_t)vaddress & (ALT_CACHE_LINE_SIZE - 1)) != 0)
    {
        return ALT_E_BAD_ARG;
    14c0:	e3e00008 	mvn	r0, #8
    14c4:	e12fff1e 	bx	lr

000014c8 <alt_cache_l1_data_purge_all>:
#elif defined(__ARMCC_VERSION)
    __asm("MRC p15, 0, sctlr,    c1, c0, 0");
#elif defined(_MSC_VER)
	sctlr = 0;
#else
    __asm("MRC p15, 0, %0,       c1, c0, 0" : "=r" (sctlr));
    14c8:	ee113f10 	mrc	15, 0, r3, cr1, cr0, {0}
{
    /* Query SCTLR.C bit (bit 2)
     / See Cortex-A9 TRM, section 4.3.9 */

    uint32_t sctlr = sctlr_read_helper();
    if ( (sctlr & ALT_CPU_SCTLR_C_SET_MSK) != 0 )
    14cc:	e3130004 	tst	r3, #4
    return ALT_E_SUCCESS;

}

ALT_STATUS_CODE alt_cache_l1_data_purge_all(void)
{
    14d0:	e92d0070 	push	{r4, r5, r6}
    int way;

    /* Ensure that it is turned on before we start trying to clear it */
    if ( ! alt_cache_l1_data_is_enabled())
    {
        return ALT_E_BAD_OPERATION;
    14d4:	03e00009 	mvneq	r0, #9
{
    /* Query SCTLR.C bit (bit 2)
     / See Cortex-A9 TRM, section 4.3.9 */

    uint32_t sctlr = sctlr_read_helper();
    if ( (sctlr & ALT_CPU_SCTLR_C_SET_MSK) != 0 )
    14d8:	0a000029 	beq	1584 <alt_cache_l1_data_purge_all+0xbc>
    __asm("ISB");
    __asm("MRC p15, 1, cssidr, c0, c0, 0");
#elif defined(_MSC_VER)
	cssidr = 0;
#else
    __asm("MCR p15, 2, %0, c0, c0, 0" : : "r" (csselr));
    14dc:	e3a03000 	mov	r3, #0
    14e0:	ee403f10 	mcr	15, 2, r3, cr0, cr0, {0}
    __asm("ISB");
    14e4:	f57ff06f 	isb	sy
    __asm("MRC p15, 1, %0, c0, c0, 0" : "=r" (cssidr));
    14e8:	ee303f10 	mrc	15, 1, r3, cr0, cr0, {0}
#endif
    {
    /* Extract the associativity, line length, and number of sets. */
    int linesize      = ALT_CPU_CCSIDR_LINESIZE_VALUE_GET(cssidr) + 2 + 2; 
		/* {log2(line length in words) - 2} + 2 + 2 => (... in bytes) */
    int associativity = ALT_CPU_CCSIDR_ASSOCIATIVITY_VALUE_GET(cssidr) + 1;
    14ec:	e7e921d3 	ubfx	r2, r3, #3, #10
    __asm("ISB");
    __asm("MRC p15, 1, %0, c0, c0, 0" : "=r" (cssidr));
#endif
    {
    /* Extract the associativity, line length, and number of sets. */
    int linesize      = ALT_CPU_CCSIDR_LINESIZE_VALUE_GET(cssidr) + 2 + 2; 
    14f0:	e203c007 	and	r12, r3, #7
		/* {log2(line length in words) - 2} + 2 + 2 => (... in bytes) */
    int associativity = ALT_CPU_CCSIDR_ASSOCIATIVITY_VALUE_GET(cssidr) + 1;
    14f4:	e2822001 	add	r2, r2, #1
    int numsets       = ALT_CPU_CCSIDR_NUMSETS_VALUE_GET(cssidr) + 1;
    14f8:	e7ee36d3 	ubfx	r3, r3, #13, #15
    /* Determine the log2 of the associativity and numsets, rounded up */
    int L = linesize; /* log2(line length in bytes) */
    int A = 0;        /* log2(associativity) rounded up */
    int S = 0;        /* log2(number of sets) rounded up */

    while ((1 << A) < associativity)
    14fc:	e3520001 	cmp	r2, #1
    __asm("ISB");
    __asm("MRC p15, 1, %0, c0, c0, 0" : "=r" (cssidr));
#endif
    {
    /* Extract the associativity, line length, and number of sets. */
    int linesize      = ALT_CPU_CCSIDR_LINESIZE_VALUE_GET(cssidr) + 2 + 2; 
    1500:	e28cc004 	add	r12, r12, #4
		/* {log2(line length in words) - 2} + 2 + 2 => (... in bytes) */
    int associativity = ALT_CPU_CCSIDR_ASSOCIATIVITY_VALUE_GET(cssidr) + 1;
    int numsets       = ALT_CPU_CCSIDR_NUMSETS_VALUE_GET(cssidr) + 1;
    1504:	e2830001 	add	r0, r3, #1
    /* Determine the log2 of the associativity and numsets, rounded up */
    int L = linesize; /* log2(line length in bytes) */
    int A = 0;        /* log2(associativity) rounded up */
    int S = 0;        /* log2(number of sets) rounded up */

    while ((1 << A) < associativity)
    1508:	03a06020 	moveq	r6, #32
    150c:	01a05002 	moveq	r5, r2
    1510:	0a000006 	beq	1530 <alt_cache_l1_data_purge_all+0x68>
    1514:	e3a03000 	mov	r3, #0
    1518:	e3a01001 	mov	r1, #1
    {
        ++A;
    151c:	e2833001 	add	r3, r3, #1
    /* Determine the log2 of the associativity and numsets, rounded up */
    int L = linesize; /* log2(line length in bytes) */
    int A = 0;        /* log2(associativity) rounded up */
    int S = 0;        /* log2(number of sets) rounded up */

    while ((1 << A) < associativity)
    1520:	e1a05311 	lsl	r5, r1, r3
    1524:	e1520005 	cmp	r2, r5
    1528:	cafffffb 	bgt	151c <alt_cache_l1_data_purge_all+0x54>
    152c:	e2636020 	rsb	r6, r3, #32
    {
        ++A;
    }

    while ((1 << S) < numsets)
    1530:	e3500001 	cmp	r0, #1
    1534:	0a000014 	beq	158c <alt_cache_l1_data_purge_all+0xc4>
    1538:	e3a02000 	mov	r2, #0
    153c:	e3a03001 	mov	r3, #1
    {
        ++S;
    1540:	e2822001 	add	r2, r2, #1
    while ((1 << A) < associativity)
    {
        ++A;
    }

    while ((1 << S) < numsets)
    1544:	e1a01213 	lsl	r1, r3, r2
    1548:	e1500001 	cmp	r0, r1
    154c:	cafffffb 	bgt	1540 <alt_cache_l1_data_purge_all+0x78>
        return ALT_E_BAD_OPERATION;
    }
    cssidr_decode_helper(false, &L, &A, &S);

    /* Repeatedly call DCCISW and loop for every cache way and set. */
    for (way = 0; way < (1 << A); ++way)
    1550:	e3a04000 	mov	r4, #0
    1554:	e1a00614 	lsl	r0, r4, r6
    while ((1 << A) < associativity)
    {
        ++A;
    }

    while ((1 << S) < numsets)
    1558:	e3a03000 	mov	r3, #0
        int set; 
        for (set = 0; set < (1 << S); ++set)
        {
            uint32_t way_set_info = 0;
            way_set_info |= way << (32 - A);
            way_set_info |= set << (L);
    155c:	e1802c13 	orr	r2, r0, r3, lsl r12
            __asm("MCR p15, 0, %[way_set_info], c7, c14, 2" : : [way_set_info] "r" (way_set_info));
#elif defined(__ARMCC_VERSION)
            __asm("MCR p15, 0, way_set_info,    c7, c14, 2");
#elif defined(_MSC_VER)
#else
            __asm("MCR p15, 0, %0,              c7, c14, 2" : : "r" (way_set_info));
    1560:	ee072f5e 	mcr	15, 0, r2, cr7, cr14, {2}

    /* Repeatedly call DCCISW and loop for every cache way and set. */
    for (way = 0; way < (1 << A); ++way)
    {
        int set; 
        for (set = 0; set < (1 << S); ++set)
    1564:	e2833001 	add	r3, r3, #1
    1568:	e1510003 	cmp	r1, r3
    156c:	cafffffa 	bgt	155c <alt_cache_l1_data_purge_all+0x94>
        return ALT_E_BAD_OPERATION;
    }
    cssidr_decode_helper(false, &L, &A, &S);

    /* Repeatedly call DCCISW and loop for every cache way and set. */
    for (way = 0; way < (1 << A); ++way)
    1570:	e2844001 	add	r4, r4, #1
    1574:	e1550004 	cmp	r5, r4
    1578:	cafffff5 	bgt	1554 <alt_cache_l1_data_purge_all+0x8c>
        }
    }

#if !defined(_MSC_VER)
	/* Ensure all cache maintenance operations complete before returning. */
	__asm("dsb");
    157c:	f57ff04f 	dsb	sy
#endif

    return ALT_E_SUCCESS;
    1580:	e3a00000 	mov	r0, #0
}
    1584:	e8bd0070 	pop	{r4, r5, r6}
    1588:	e12fff1e 	bx	lr
    while ((1 << A) < associativity)
    {
        ++A;
    }

    while ((1 << S) < numsets)
    158c:	e1a01000 	mov	r1, r0
    1590:	eaffffee 	b	1550 <alt_cache_l1_data_purge_all+0x88>

00001594 <alt_cache_l1_parity_enable>:

    return ALT_E_SUCCESS;
}

ALT_STATUS_CODE alt_cache_l1_parity_enable(void)
{
    1594:	e92d41f0 	push	{r4, r5, r6, r7, r8, lr}
#elif defined(__ARMCC_VERSION)
    __asm("MRC p15, 0, actlr,    c1, c0, 1");
#elif defined(_MSC_VER)
	actlr = 0;
#else
    __asm("MRC p15, 0, %0,       c1, c0, 1" : "=r" (actlr));
    1598:	ee114f30 	mrc	15, 0, r4, cr1, cr0, {1}
}

ALT_STATUS_CODE alt_cache_l1_parity_enable(void)
{
    uint32_t actlr = actlr_read_helper();
    if ((actlr & ALT_CPU_ACTLR_PARITYON_SET_MSK) == 0)
    159c:	e3140c02 	tst	r4, #512	; 0x200
    15a0:	1a000022 	bne	1630 <alt_cache_l1_parity_enable+0x9c>
#elif defined(__ARMCC_VERSION)
    __asm("MRC p15, 0, sctlr,    c1, c0, 0");
#elif defined(_MSC_VER)
	sctlr = 0;
#else
    __asm("MRC p15, 0, %0,       c1, c0, 0" : "=r" (sctlr));
    15a4:	ee113f10 	mrc	15, 0, r3, cr1, cr0, {0}
{
    /* Query SCTLR.I bit (bit 12)
     / See Cortex-A9 TRM, section 4.3.9 */

    uint32_t sctlr = sctlr_read_helper();
    if ( (sctlr & ALT_CPU_SCTLR_I_SET_MSK) != 0 )
    15a8:	e7e07653 	ubfx	r7, r3, #12, #1
{
    /* Query SCTLR.C bit (bit 2)
     / See Cortex-A9 TRM, section 4.3.9 */

    uint32_t sctlr = sctlr_read_helper();
    if ( (sctlr & ALT_CPU_SCTLR_C_SET_MSK) != 0 )
    15ac:	e7e06153 	ubfx	r6, r3, #2, #1
        bool dcache_en = alt_cache_l1_data_is_enabled();
        bool icache_en = alt_cache_l1_instruction_is_enabled();
        bool branch_en = alt_cache_l1_branch_is_enabled();

        /* For those caches, disable them temporarily */
        if (icache_en == true)
    15b0:	e3570000 	cmp	r7, #0
}

bool alt_cache_l1_branch_is_enabled(void)
{
    uint32_t sctlr = sctlr_read_helper();
    if ((sctlr & ALT_CPU_SCTLR_Z_SET_MSK) != 0)
    15b4:	e7e055d3 	ubfx	r5, r3, #11, #1
        bool dcache_en = alt_cache_l1_data_is_enabled();
        bool icache_en = alt_cache_l1_instruction_is_enabled();
        bool branch_en = alt_cache_l1_branch_is_enabled();

        /* For those caches, disable them temporarily */
        if (icache_en == true)
    15b8:	0a000001 	beq	15c4 <alt_cache_l1_parity_enable+0x30>
{
    /* Update SCTLR.I bit (bit 12)
     / See Cortex-A9 TRM, section 4.3.9 */

    uint32_t sctlr = sctlr_read_helper();
    sctlr &= ~ALT_CPU_SCTLR_I_SET_MSK;
    15bc:	e3c33a01 	bic	r3, r3, #4096	; 0x1000
    __asm("MCR p15, 0, %[sctlr], c1, c0, 0" : : [sctlr] "r" (sctlr));
#elif defined(__ARMCC_VERSION)
    __asm("MCR p15, 0, sctlr,    c1, c0, 0");
#elif defined(_MSC_VER)
#else
    __asm("MCR p15, 0, %0,       c1, c0, 0" : : "r" (sctlr));
    15c0:	ee013f10 	mcr	15, 0, r3, cr1, cr0, {0}
        /* For those caches, disable them temporarily */
        if (icache_en == true)
        {
            alt_cache_l1_instruction_disable();
        }
        if (dcache_en == true)
    15c4:	e3560000 	cmp	r6, #0
    15c8:	1a000021 	bne	1654 <alt_cache_l1_parity_enable+0xc0>
        {
            alt_cache_l1_data_disable();
        }
        if (branch_en == true)
    15cc:	e3550000 	cmp	r5, #0
    15d0:	0a000002 	beq	15e0 <alt_cache_l1_parity_enable+0x4c>
#elif defined(__ARMCC_VERSION)
    __asm("MRC p15, 0, sctlr,    c1, c0, 0");
#elif defined(_MSC_VER)
	sctlr = 0;
#else
    __asm("MRC p15, 0, %0,       c1, c0, 0" : "=r" (sctlr));
    15d4:	ee113f10 	mrc	15, 0, r3, cr1, cr0, {0}
}

ALT_STATUS_CODE alt_cache_l1_branch_disable(void)
{
    uint32_t sctlr = sctlr_read_helper();
    sctlr &= ~ALT_CPU_SCTLR_Z_SET_MSK;
    15d8:	e3c33b02 	bic	r3, r3, #2048	; 0x800
    __asm("MCR p15, 0, %[sctlr], c1, c0, 0" : : [sctlr] "r" (sctlr));
#elif defined(__ARMCC_VERSION)
    __asm("MCR p15, 0, sctlr,    c1, c0, 0");
#elif defined(_MSC_VER)
#else
    __asm("MCR p15, 0, %0,       c1, c0, 0" : : "r" (sctlr));
    15dc:	ee013f10 	mcr	15, 0, r3, cr1, cr0, {0}
        {
            alt_cache_l1_branch_disable();
        }

        /* Turn on parity in the L1. */
        actlr |= ALT_CPU_ACTLR_PARITYON_SET_MSK;
    15e0:	e3844c02 	orr	r4, r4, #512	; 0x200
    __asm("MCR p15, 0, %[actlr], c1, c0, 1" : : [actlr] "r" (actlr));
#elif defined(__ARMCC_VERSION)
    __asm("MCR p15, 0, actlr,    c1, c0, 1");
#elif defined(_MSC_VER)
#else
    __asm("MCR p15, 0, %0,       c1, c0, 1" : : "r" (actlr));
    15e4:	ee014f30 	mcr	15, 0, r4, cr1, cr0, {1}
        /* Turn on parity in the L1. */
        actlr |= ALT_CPU_ACTLR_PARITYON_SET_MSK;
        actlr_write_helper(actlr);

        /* Now enable them again. */
        if (icache_en == true)
    15e8:	e3570000 	cmp	r7, #0
    15ec:	0a000005 	beq	1608 <alt_cache_l1_parity_enable+0x74>
#elif defined(__ARMCC_VERSION)
    __asm("MRC p15, 0, sctlr,    c1, c0, 0");
#elif defined(_MSC_VER)
	sctlr = 0;
#else
    __asm("MRC p15, 0, %0,       c1, c0, 0" : "=r" (sctlr));
    15f0:	ee113f10 	mrc	15, 0, r3, cr1, cr0, {0}
{
    /* Update SCTLR.I bit (bit 12)
     / See Cortex-A9 TRM, section 4.3.9 */

    uint32_t sctlr = sctlr_read_helper();
    if ((sctlr & ALT_CPU_SCTLR_I_SET_MSK) == 0)
    15f4:	e2132a01 	ands	r2, r3, #4096	; 0x1000
    15f8:	1a000002 	bne	1608 <alt_cache_l1_parity_enable+0x74>
    __asm("MCR p15, 0, %[dummy], c7, c1, 0" : : [dummy] "r" (dummy));
#elif defined(__ARMCC_VERSION)
    __asm("MCR p15, 0, dummy,    c7, c1, 0");
#elif defined(_MSC_VER)
#else
    __asm("MCR p15, 0, %0,       c7, c1, 0" : : "r" (dummy));
    15fc:	ee072f11 	mcr	15, 0, r2, cr7, cr1, {0}
    uint32_t sctlr = sctlr_read_helper();
    if ((sctlr & ALT_CPU_SCTLR_I_SET_MSK) == 0)
    {
        alt_cache_l1_instruction_invalidate();

        sctlr |= ALT_CPU_SCTLR_I_SET_MSK;
    1600:	e3833a01 	orr	r3, r3, #4096	; 0x1000
    __asm("MCR p15, 0, %[sctlr], c1, c0, 0" : : [sctlr] "r" (sctlr));
#elif defined(__ARMCC_VERSION)
    __asm("MCR p15, 0, sctlr,    c1, c0, 0");
#elif defined(_MSC_VER)
#else
    __asm("MCR p15, 0, %0,       c1, c0, 0" : : "r" (sctlr));
    1604:	ee013f10 	mcr	15, 0, r3, cr1, cr0, {0}
        /* Now enable them again. */
        if (icache_en == true)
        {
            alt_cache_l1_instruction_enable();
        }
        if (dcache_en == true)
    1608:	e3560000 	cmp	r6, #0
    160c:	1a000009 	bne	1638 <alt_cache_l1_parity_enable+0xa4>
        {
            alt_cache_l1_data_enable();
        }
        if (branch_en == true)
    1610:	e3550000 	cmp	r5, #0
    1614:	0a000005 	beq	1630 <alt_cache_l1_parity_enable+0x9c>
    __asm("MCR p15, 0, %[dummy], c7, c1, 6" : : [dummy] "r" (dummy));
#elif defined(__ARMCC_VERSION)
    __asm("MCR p15, 0, dummy,    c7, c1, 6");
#elif defined(_MSC_VER)
#else
    __asm("MCR p15, 0, %0,       c7, c1, 6" : : "r" (dummy));
    1618:	e3a03000 	mov	r3, #0
    161c:	ee073fd1 	mcr	15, 0, r3, cr7, cr1, {6}
#endif

#if !defined(_MSC_VER)
	/* Ensure all cache maintenance operations complete before returning. */
	__asm("dsb");
    1620:	f57ff04f 	dsb	sy
#elif defined(__ARMCC_VERSION)
    __asm("MRC p15, 0, sctlr,    c1, c0, 0");
#elif defined(_MSC_VER)
	sctlr = 0;
#else
    __asm("MRC p15, 0, %0,       c1, c0, 0" : "=r" (sctlr));
    1624:	ee113f10 	mrc	15, 0, r3, cr1, cr0, {0}
ALT_STATUS_CODE alt_cache_l1_branch_enable(void)
{
    uint32_t sctlr; 
    alt_cache_l1_branch_invalidate();
    sctlr = sctlr_read_helper();
    sctlr |= ALT_CPU_SCTLR_Z_SET_MSK;
    1628:	e3833b02 	orr	r3, r3, #2048	; 0x800
    __asm("MCR p15, 0, %[sctlr], c1, c0, 0" : : [sctlr] "r" (sctlr));
#elif defined(__ARMCC_VERSION)
    __asm("MCR p15, 0, sctlr,    c1, c0, 0");
#elif defined(_MSC_VER)
#else
    __asm("MCR p15, 0, %0,       c1, c0, 0" : : "r" (sctlr));
    162c:	ee013f10 	mcr	15, 0, r3, cr1, cr0, {0}
            alt_cache_l1_branch_enable();
        }
    }

    return ALT_E_SUCCESS;
}
    1630:	e3a00000 	mov	r0, #0
    1634:	e8bd81f0 	pop	{r4, r5, r6, r7, r8, pc}
#elif defined(__ARMCC_VERSION)
    __asm("MRC p15, 0, sctlr,    c1, c0, 0");
#elif defined(_MSC_VER)
	sctlr = 0;
#else
    __asm("MRC p15, 0, %0,       c1, c0, 0" : "=r" (sctlr));
    1638:	ee114f10 	mrc	15, 0, r4, cr1, cr0, {0}
{
    /* Update SCTLR.C bit (bit 2)
     / See Cortex-A9 TRM, section 4.3.9 */

    uint32_t sctlr = sctlr_read_helper();
    if ((sctlr & ALT_CPU_SCTLR_C_SET_MSK) == 0)
    163c:	e3140004 	tst	r4, #4
    1640:	1afffff2 	bne	1610 <alt_cache_l1_parity_enable+0x7c>
    {
        alt_cache_l1_data_invalidate_all();
    1644:	ebfffeb5 	bl	1120 <alt_cache_l1_data_invalidate_all>

        sctlr |= ALT_CPU_SCTLR_C_SET_MSK;
    1648:	e3844004 	orr	r4, r4, #4
    __asm("MCR p15, 0, %[sctlr], c1, c0, 0" : : [sctlr] "r" (sctlr));
#elif defined(__ARMCC_VERSION)
    __asm("MCR p15, 0, sctlr,    c1, c0, 0");
#elif defined(_MSC_VER)
#else
    __asm("MCR p15, 0, %0,       c1, c0, 0" : : "r" (sctlr));
    164c:	ee014f10 	mcr	15, 0, r4, cr1, cr0, {0}
    1650:	eaffffee 	b	1610 <alt_cache_l1_parity_enable+0x7c>
#elif defined(__ARMCC_VERSION)
    __asm("MRC p15, 0, sctlr,    c1, c0, 0");
#elif defined(_MSC_VER)
	sctlr = 0;
#else
    __asm("MRC p15, 0, %0,       c1, c0, 0" : "=r" (sctlr));
    1654:	ee118f10 	mrc	15, 0, r8, cr1, cr0, {0}
{
    /* Update SCTLR.C bit (bit 2)
     / See Cortex-A9 TRM, section 4.3.9 */

    uint32_t sctlr = sctlr_read_helper();
    if ((sctlr & ALT_CPU_SCTLR_C_SET_MSK) != 0)
    1658:	e3180004 	tst	r8, #4
    165c:	0affffda 	beq	15cc <alt_cache_l1_parity_enable+0x38>
    {
        alt_cache_l1_data_clean_all();
    1660:	ebfffeff 	bl	1264 <alt_cache_l1_data_clean_all>

        sctlr &= ~ALT_CPU_SCTLR_C_SET_MSK;
    1664:	e3c88004 	bic	r8, r8, #4
    __asm("MCR p15, 0, %[sctlr], c1, c0, 0" : : [sctlr] "r" (sctlr));
#elif defined(__ARMCC_VERSION)
    __asm("MCR p15, 0, sctlr,    c1, c0, 0");
#elif defined(_MSC_VER)
#else
    __asm("MCR p15, 0, %0,       c1, c0, 0" : : "r" (sctlr));
    1668:	ee018f10 	mcr	15, 0, r8, cr1, cr0, {0}
    166c:	eaffffd6 	b	15cc <alt_cache_l1_parity_enable+0x38>

00001670 <alt_cache_l1_enable_all>:
    *log2_S = S;
    }
}

ALT_STATUS_CODE alt_cache_l1_enable_all(void)
{
    1670:	e92d4010 	push	{r4, lr}
#elif defined(__ARMCC_VERSION)
    __asm("MRC p15, 0, actlr,    c1, c0, 1");
#elif defined(_MSC_VER)
	actlr = 0;
#else
    __asm("MRC p15, 0, %0,       c1, c0, 1" : "=r" (actlr));
    1674:	ee113f30 	mrc	15, 0, r3, cr1, cr0, {1}
}

ALT_STATUS_CODE alt_cache_l1_parity_disable(void)
{
    uint32_t actlr = actlr_read_helper();
    actlr &= ~ALT_CPU_ACTLR_PARITYON_SET_MSK;
    1678:	e3c33c02 	bic	r3, r3, #512	; 0x200
    __asm("MCR p15, 0, %[actlr], c1, c0, 1" : : [actlr] "r" (actlr));
#elif defined(__ARMCC_VERSION)
    __asm("MCR p15, 0, actlr,    c1, c0, 1");
#elif defined(_MSC_VER)
#else
    __asm("MCR p15, 0, %0,       c1, c0, 1" : : "r" (actlr));
    167c:	ee013f30 	mcr	15, 0, r3, cr1, cr0, {1}
#elif defined(__ARMCC_VERSION)
    __asm("MRC p15, 0, sctlr,    c1, c0, 0");
#elif defined(_MSC_VER)
	sctlr = 0;
#else
    __asm("MRC p15, 0, %0,       c1, c0, 0" : "=r" (sctlr));
    1680:	ee113f10 	mrc	15, 0, r3, cr1, cr0, {0}
{
    /* Update SCTLR.I bit (bit 12)
     / See Cortex-A9 TRM, section 4.3.9 */

    uint32_t sctlr = sctlr_read_helper();
    sctlr &= ~ALT_CPU_SCTLR_I_SET_MSK;
    1684:	e3c33a01 	bic	r3, r3, #4096	; 0x1000
    __asm("MCR p15, 0, %[sctlr], c1, c0, 0" : : [sctlr] "r" (sctlr));
#elif defined(__ARMCC_VERSION)
    __asm("MCR p15, 0, sctlr,    c1, c0, 0");
#elif defined(_MSC_VER)
#else
    __asm("MCR p15, 0, %0,       c1, c0, 0" : : "r" (sctlr));
    1688:	ee013f10 	mcr	15, 0, r3, cr1, cr0, {0}
#elif defined(__ARMCC_VERSION)
    __asm("MRC p15, 0, sctlr,    c1, c0, 0");
#elif defined(_MSC_VER)
	sctlr = 0;
#else
    __asm("MRC p15, 0, %0,       c1, c0, 0" : "=r" (sctlr));
    168c:	ee114f10 	mrc	15, 0, r4, cr1, cr0, {0}
{
    /* Update SCTLR.C bit (bit 2)
     / See Cortex-A9 TRM, section 4.3.9 */

    uint32_t sctlr = sctlr_read_helper();
    if ((sctlr & ALT_CPU_SCTLR_C_SET_MSK) != 0)
    1690:	e3140004 	tst	r4, #4
    1694:	0a000002 	beq	16a4 <alt_cache_l1_enable_all+0x34>
    {
        alt_cache_l1_data_clean_all();
    1698:	ebfffef1 	bl	1264 <alt_cache_l1_data_clean_all>

        sctlr &= ~ALT_CPU_SCTLR_C_SET_MSK;
    169c:	e3c44004 	bic	r4, r4, #4
    __asm("MCR p15, 0, %[sctlr], c1, c0, 0" : : [sctlr] "r" (sctlr));
#elif defined(__ARMCC_VERSION)
    __asm("MCR p15, 0, sctlr,    c1, c0, 0");
#elif defined(_MSC_VER)
#else
    __asm("MCR p15, 0, %0,       c1, c0, 0" : : "r" (sctlr));
    16a0:	ee014f10 	mcr	15, 0, r4, cr1, cr0, {0}
#elif defined(__ARMCC_VERSION)
    __asm("MRC p15, 0, sctlr,    c1, c0, 0");
#elif defined(_MSC_VER)
	sctlr = 0;
#else
    __asm("MRC p15, 0, %0,       c1, c0, 0" : "=r" (sctlr));
    16a4:	ee113f10 	mrc	15, 0, r3, cr1, cr0, {0}
}

ALT_STATUS_CODE alt_cache_l1_branch_disable(void)
{
    uint32_t sctlr = sctlr_read_helper();
    sctlr &= ~ALT_CPU_SCTLR_Z_SET_MSK;
    16a8:	e3c33b02 	bic	r3, r3, #2048	; 0x800
    __asm("MCR p15, 0, %[sctlr], c1, c0, 0" : : [sctlr] "r" (sctlr));
#elif defined(__ARMCC_VERSION)
    __asm("MCR p15, 0, sctlr,    c1, c0, 0");
#elif defined(_MSC_VER)
#else
    __asm("MCR p15, 0, %0,       c1, c0, 0" : : "r" (sctlr));
    16ac:	ee013f10 	mcr	15, 0, r3, cr1, cr0, {0}
#elif defined(__ARMCC_VERSION)
    __asm("MRC p15, 0, actlr,    c1, c0, 1");
#elif defined(_MSC_VER)
	actlr = 0;
#else
    __asm("MRC p15, 0, %0,       c1, c0, 1" : "=r" (actlr));
    16b0:	ee113f30 	mrc	15, 0, r3, cr1, cr0, {1}
}

ALT_STATUS_CODE alt_cache_l1_prefetch_disable(void)
{
    uint32_t actlr = actlr_read_helper();
    actlr &= ~ALT_CPU_ACTLR_L1PREFETCHEN_SET_MSK;
    16b4:	e3c33004 	bic	r3, r3, #4
    __asm("MCR p15, 0, %[actlr], c1, c0, 1" : : [actlr] "r" (actlr));
#elif defined(__ARMCC_VERSION)
    __asm("MCR p15, 0, actlr,    c1, c0, 1");
#elif defined(_MSC_VER)
#else
    __asm("MCR p15, 0, %0,       c1, c0, 1" : : "r" (actlr));
    16b8:	ee013f30 	mcr	15, 0, r3, cr1, cr0, {1}
ALT_STATUS_CODE alt_cache_l1_enable_all(void)
{
    alt_cache_l1_disable_all();

    /* Parity should be turned on before anything else. */
    alt_cache_l1_parity_enable();
    16bc:	ebffffb4 	bl	1594 <alt_cache_l1_parity_enable>
#elif defined(__ARMCC_VERSION)
    __asm("MRC p15, 0, sctlr,    c1, c0, 0");
#elif defined(_MSC_VER)
	sctlr = 0;
#else
    __asm("MRC p15, 0, %0,       c1, c0, 0" : "=r" (sctlr));
    16c0:	ee113f10 	mrc	15, 0, r3, cr1, cr0, {0}
{
    /* Update SCTLR.I bit (bit 12)
     / See Cortex-A9 TRM, section 4.3.9 */

    uint32_t sctlr = sctlr_read_helper();
    if ((sctlr & ALT_CPU_SCTLR_I_SET_MSK) == 0)
    16c4:	e2132a01 	ands	r2, r3, #4096	; 0x1000
    16c8:	1a000002 	bne	16d8 <alt_cache_l1_enable_all+0x68>
    __asm("MCR p15, 0, %[dummy], c7, c1, 0" : : [dummy] "r" (dummy));
#elif defined(__ARMCC_VERSION)
    __asm("MCR p15, 0, dummy,    c7, c1, 0");
#elif defined(_MSC_VER)
#else
    __asm("MCR p15, 0, %0,       c7, c1, 0" : : "r" (dummy));
    16cc:	ee072f11 	mcr	15, 0, r2, cr7, cr1, {0}
    uint32_t sctlr = sctlr_read_helper();
    if ((sctlr & ALT_CPU_SCTLR_I_SET_MSK) == 0)
    {
        alt_cache_l1_instruction_invalidate();

        sctlr |= ALT_CPU_SCTLR_I_SET_MSK;
    16d0:	e3833a01 	orr	r3, r3, #4096	; 0x1000
    __asm("MCR p15, 0, %[sctlr], c1, c0, 0" : : [sctlr] "r" (sctlr));
#elif defined(__ARMCC_VERSION)
    __asm("MCR p15, 0, sctlr,    c1, c0, 0");
#elif defined(_MSC_VER)
#else
    __asm("MCR p15, 0, %0,       c1, c0, 0" : : "r" (sctlr));
    16d4:	ee013f10 	mcr	15, 0, r3, cr1, cr0, {0}
#elif defined(__ARMCC_VERSION)
    __asm("MRC p15, 0, sctlr,    c1, c0, 0");
#elif defined(_MSC_VER)
	sctlr = 0;
#else
    __asm("MRC p15, 0, %0,       c1, c0, 0" : "=r" (sctlr));
    16d8:	ee114f10 	mrc	15, 0, r4, cr1, cr0, {0}
{
    /* Update SCTLR.C bit (bit 2)
     / See Cortex-A9 TRM, section 4.3.9 */

    uint32_t sctlr = sctlr_read_helper();
    if ((sctlr & ALT_CPU_SCTLR_C_SET_MSK) == 0)
    16dc:	e3140004 	tst	r4, #4
    16e0:	1a000002 	bne	16f0 <alt_cache_l1_enable_all+0x80>
    {
        alt_cache_l1_data_invalidate_all();
    16e4:	ebfffe8d 	bl	1120 <alt_cache_l1_data_invalidate_all>

        sctlr |= ALT_CPU_SCTLR_C_SET_MSK;
    16e8:	e3844004 	orr	r4, r4, #4
    __asm("MCR p15, 0, %[sctlr], c1, c0, 0" : : [sctlr] "r" (sctlr));
#elif defined(__ARMCC_VERSION)
    __asm("MCR p15, 0, sctlr,    c1, c0, 0");
#elif defined(_MSC_VER)
#else
    __asm("MCR p15, 0, %0,       c1, c0, 0" : : "r" (sctlr));
    16ec:	ee014f10 	mcr	15, 0, r4, cr1, cr0, {0}
    __asm("MCR p15, 0, %[dummy], c7, c1, 6" : : [dummy] "r" (dummy));
#elif defined(__ARMCC_VERSION)
    __asm("MCR p15, 0, dummy,    c7, c1, 6");
#elif defined(_MSC_VER)
#else
    __asm("MCR p15, 0, %0,       c7, c1, 6" : : "r" (dummy));
    16f0:	e3a03000 	mov	r3, #0
    16f4:	ee073fd1 	mcr	15, 0, r3, cr7, cr1, {6}
#endif

#if !defined(_MSC_VER)
	/* Ensure all cache maintenance operations complete before returning. */
	__asm("dsb");
    16f8:	f57ff04f 	dsb	sy
#elif defined(__ARMCC_VERSION)
    __asm("MRC p15, 0, sctlr,    c1, c0, 0");
#elif defined(_MSC_VER)
	sctlr = 0;
#else
    __asm("MRC p15, 0, %0,       c1, c0, 0" : "=r" (sctlr));
    16fc:	ee113f10 	mrc	15, 0, r3, cr1, cr0, {0}
ALT_STATUS_CODE alt_cache_l1_branch_enable(void)
{
    uint32_t sctlr; 
    alt_cache_l1_branch_invalidate();
    sctlr = sctlr_read_helper();
    sctlr |= ALT_CPU_SCTLR_Z_SET_MSK;
    1700:	e3833b02 	orr	r3, r3, #2048	; 0x800
    __asm("MCR p15, 0, %[sctlr], c1, c0, 0" : : [sctlr] "r" (sctlr));
#elif defined(__ARMCC_VERSION)
    __asm("MCR p15, 0, sctlr,    c1, c0, 0");
#elif defined(_MSC_VER)
#else
    __asm("MCR p15, 0, %0,       c1, c0, 0" : : "r" (sctlr));
    1704:	ee013f10 	mcr	15, 0, r3, cr1, cr0, {0}
#elif defined(__ARMCC_VERSION)
    __asm("MRC p15, 0, actlr,    c1, c0, 1");
#elif defined(_MSC_VER)
	actlr = 0;
#else
    __asm("MRC p15, 0, %0,       c1, c0, 1" : "=r" (actlr));
    1708:	ee113f30 	mrc	15, 0, r3, cr1, cr0, {1}
}

ALT_STATUS_CODE alt_cache_l1_prefetch_enable(void)
{
    uint32_t actlr = actlr_read_helper();
    actlr |= ALT_CPU_ACTLR_L1PREFETCHEN_SET_MSK;
    170c:	e3833004 	orr	r3, r3, #4
    __asm("MCR p15, 0, %[actlr], c1, c0, 1" : : [actlr] "r" (actlr));
#elif defined(__ARMCC_VERSION)
    __asm("MCR p15, 0, actlr,    c1, c0, 1");
#elif defined(_MSC_VER)
#else
    __asm("MCR p15, 0, %0,       c1, c0, 1" : : "r" (actlr));
    1710:	ee013f30 	mcr	15, 0, r3, cr1, cr0, {1}
    alt_cache_l1_data_enable();
    alt_cache_l1_branch_enable();
    alt_cache_l1_prefetch_enable();

    return ALT_E_SUCCESS;
}
    1714:	e3a00000 	mov	r0, #0
    1718:	e8bd8010 	pop	{r4, pc}

0000171c <alt_cache_system_enable>:
#endif

/* System Level API here */

ALT_STATUS_CODE alt_cache_system_enable(void)
{
    171c:	e92d4008 	push	{r3, lr}
    alt_cache_l1_enable_all();
    1720:	ebffffd2 	bl	1670 <alt_cache_l1_enable_all>
{


    /* Query the cache characteristics */

    uint32_t auxctrl = alt_read_word(ALT_MPUL2_AUX_CONTROL_ADDR);
    1724:	e3e03801 	mvn	r3, #65536	; 0x10000
    1728:	e3090fe0 	movw	r0, #40928	; 0x9fe0
    172c:	e5132efb 	ldr	r2, [r3, #-3835]	; 0xfffff105
     * (Not needed as the associated lines are by default set to the instantiation parameters) */

    /* Invalidate by way all cache entries
     * (Not needed as it will be invalidated when L2 is enabled) */

    alt_write_word(ALT_MPUL2_TAG_RAM_CONTROL_ADDR,
    1730:	e3a01000 	mov	r1, #0
    1734:	e3400001 	movt	r0, #1

    uint32_t auxctrl = alt_read_word(ALT_MPUL2_AUX_CONTROL_ADDR);

    if (auxctrl & ALT_MPUL2_AUX_CONTROL_ASSOCIATIVITY_SET_MSK)
    {
        alt_cache_l2_waymask = 0x0000ffff;
    1738:	e3120801 	tst	r2, #65536	; 0x10000
    173c:	e30f2fff 	movw	r2, #65535	; 0xffff
    1740:	03a020ff 	moveq	r2, #255	; 0xff
    1744:	e5802000 	str	r2, [r0]
     * (Not needed as the associated lines are by default set to the instantiation parameters) */

    /* Invalidate by way all cache entries
     * (Not needed as it will be invalidated when L2 is enabled) */

    alt_write_word(ALT_MPUL2_TAG_RAM_CONTROL_ADDR,
    1748:	e5031ef7 	str	r1, [r3, #-3831]	; 0xfffff109
                     ALT_MPUL2_TAG_RAM_CONTROL_WRITE_LATENCY_VALUE_SET(0)
                   | ALT_MPUL2_TAG_RAM_CONTROL_READ_LATENCY_VALUE_SET(0)
                   | ALT_MPUL2_TAG_RAM_CONTROL_SETUP_LATENCY_VALUE_SET(0));

    alt_write_word(ALT_MPUL2_DATA_RAM_CONTROL_ADDR,
    174c:	e3a01010 	mov	r1, #16
    1750:	e5031ef3 	str	r1, [r3, #-3827]	; 0xfffff10d
    if ((interrupt & ALT_CACHE_L2_INTERRUPT_ALL) == 0)
    {
        return ALT_E_BAD_ARG;
    }

    alt_write_word(ALT_MPUL2_INT_CLEAR_ADDR, interrupt);
    1754:	e30011ff 	movw	r1, #511	; 0x1ff
    1758:	e5031ddf 	str	r1, [r3, #-3551]	; 0xfffff221
{
    /* Use the Prefetch Control Register instead of Aux Control. This is
     / because the Prefetch Control can be changed while the L2 is enabled.
     / For more information, see L2C-310, section 3.3.14. */

    alt_setbits_word(ALT_MPUL2_PREFETCH_CTRL_ADDR, ALT_MPUL2_PREFETCH_CTRL_PF_EN_SET_MSK);
    175c:	e513109f 	ldr	r1, [r3, #-159]	; 0xffffff61
    1760:	e3811203 	orr	r1, r1, #805306368	; 0x30000000
    1764:	e503109f 	str	r1, [r3, #-159]	; 0xffffff61
    return ALT_E_SUCCESS;
}

bool alt_cache_l2_is_enabled(void)
{
    uint32_t ctrl = alt_read_word(ALT_MPUL2_CONTROL_ADDR);
    1768:	e5131eff 	ldr	r1, [r3, #-3839]	; 0xfffff101
    if ((ctrl & ALT_MPUL2_CONTROL_EN_SET_MSK) != 0)
    176c:	e3110001 	tst	r1, #1
    1770:	0a000027 	beq	1814 <alt_cache_system_enable+0xf8>
    return ALT_E_SUCCESS;
}

bool alt_cache_l2_is_enabled(void)
{
    uint32_t ctrl = alt_read_word(ALT_MPUL2_CONTROL_ADDR);
    1774:	e5131eff 	ldr	r1, [r3, #-3839]	; 0xfffff101
    if ((ctrl & ALT_MPUL2_CONTROL_EN_SET_MSK) != 0)
    1778:	e3110001 	tst	r1, #1
    177c:	0a00000d 	beq	17b8 <alt_cache_system_enable+0x9c>
    int i = 0;

    /*Clean and invalidate by way, all ways.
    /  For more information, see L2C-310, section 3.3.10. */

    alt_write_word(ALT_MPUL2_CLEAN_INV_WAY_ADDR, alt_cache_l2_waymask);
    1780:	e5032803 	str	r2, [r3, #-2051]	; 0xfffff7fd

    while (alt_read_word(ALT_MPUL2_CLEAN_INV_WAY_ADDR))
    1784:	e5132803 	ldr	r2, [r3, #-2051]	; 0xfffff7fd
    1788:	e3520000 	cmp	r2, #0
    178c:	13a02801 	movne	r2, #65536	; 0x10000
    1790:	1a000002 	bne	17a0 <alt_cache_system_enable+0x84>
    1794:	ea000004 	b	17ac <alt_cache_system_enable+0x90>
    {
        /* Background operation still in progress. */

        if (i == ALT_CACHE_L2_PURGE_ALL_TIMEOUT)
    1798:	e2522001 	subs	r2, r2, #1
    179c:	0a000002 	beq	17ac <alt_cache_system_enable+0x90>
    /*Clean and invalidate by way, all ways.
    /  For more information, see L2C-310, section 3.3.10. */

    alt_write_word(ALT_MPUL2_CLEAN_INV_WAY_ADDR, alt_cache_l2_waymask);

    while (alt_read_word(ALT_MPUL2_CLEAN_INV_WAY_ADDR))
    17a0:	e5131803 	ldr	r1, [r3, #-2051]	; 0xfffff7fd
    17a4:	e3510000 	cmp	r1, #0
    17a8:	1afffffa 	bne	1798 <alt_cache_system_enable+0x7c>
ALT_STATUS_CODE alt_cache_l2_disable(void)
{
    if (alt_cache_l2_is_enabled())
    {
        alt_cache_l2_purge_all();
        alt_write_word(ALT_MPUL2_CONTROL_ADDR, 0);
    17ac:	e3a02000 	mov	r2, #0
    17b0:	e3e03801 	mvn	r3, #65536	; 0x10000
    17b4:	e5032eff 	str	r2, [r3, #-3839]	; 0xfffff101
    if (l2_enabled)
    {
        alt_cache_l2_disable();
    }

    alt_setbits_word(ALT_MPUL2_AUX_CONTROL_ADDR, ALT_MPUL2_AUX_CONTROL_PARITY_EN_SET_MSK);
    17b8:	e3e01801 	mvn	r1, #65536	; 0x10000
    17bc:	e5113efb 	ldr	r3, [r1, #-3835]	; 0xfffff105
    17c0:	e3833602 	orr	r3, r3, #2097152	; 0x200000
    17c4:	e5013efb 	str	r3, [r1, #-3835]	; 0xfffff105
    return ALT_E_SUCCESS;
}

bool alt_cache_l2_is_enabled(void)
{
    uint32_t ctrl = alt_read_word(ALT_MPUL2_CONTROL_ADDR);
    17c8:	e5113eff 	ldr	r3, [r1, #-3839]	; 0xfffff101
    if ((ctrl & ALT_MPUL2_CONTROL_EN_SET_MSK) != 0)
    17cc:	e3130001 	tst	r3, #1
    17d0:	1a000012 	bne	1820 <alt_cache_system_enable+0x104>
    int i = 0;

    /* Invalidate by way, all ways.
     / For more information, see L2C-310, section 3.3.10. */

    alt_write_word(ALT_MPUL2_INV_WAY_ADDR, alt_cache_l2_waymask);
    17d4:	e5903000 	ldr	r3, [r0]
    17d8:	e5013883 	str	r3, [r1, #-2179]	; 0xfffff77d

    while (alt_read_word(ALT_MPUL2_INV_WAY_ADDR))
    17dc:	e5113883 	ldr	r3, [r1, #-2179]	; 0xfffff77d
    17e0:	e3530000 	cmp	r3, #0
    17e4:	13a03a01 	movne	r3, #4096	; 0x1000
    17e8:	1a000002 	bne	17f8 <alt_cache_system_enable+0xdc>
    17ec:	ea000004 	b	1804 <alt_cache_system_enable+0xe8>
    {
        /* Background operation still in progress. */

        if (i == ALT_CACHE_L2_INVALIDATE_ALL_TIMEOUT)
    17f0:	e2533001 	subs	r3, r3, #1
    17f4:	0a000002 	beq	1804 <alt_cache_system_enable+0xe8>
    /* Invalidate by way, all ways.
     / For more information, see L2C-310, section 3.3.10. */

    alt_write_word(ALT_MPUL2_INV_WAY_ADDR, alt_cache_l2_waymask);

    while (alt_read_word(ALT_MPUL2_INV_WAY_ADDR))
    17f8:	e5112883 	ldr	r2, [r1, #-2179]	; 0xfffff77d
    17fc:	e3520000 	cmp	r2, #0
    1800:	1afffffa 	bne	17f0 <alt_cache_system_enable+0xd4>
ALT_STATUS_CODE alt_cache_l2_enable(void)
{
    if (!alt_cache_l2_is_enabled())
    {
        alt_cache_l2_invalidate_all();
        alt_write_word(ALT_MPUL2_CONTROL_ADDR, ALT_MPUL2_CONTROL_EN_SET_MSK);
    1804:	e3a02001 	mov	r2, #1
    1808:	e3e03801 	mvn	r3, #65536	; 0x10000
    180c:	e5032eff 	str	r2, [r3, #-3839]	; 0xfffff101
    1810:	ea000002 	b	1820 <alt_cache_system_enable+0x104>
    if (l2_enabled)
    {
        alt_cache_l2_disable();
    }

    alt_setbits_word(ALT_MPUL2_AUX_CONTROL_ADDR, ALT_MPUL2_AUX_CONTROL_PARITY_EN_SET_MSK);
    1814:	e5132efb 	ldr	r2, [r3, #-3835]	; 0xfffff105
    1818:	e3822602 	orr	r2, r2, #2097152	; 0x200000
    181c:	e5032efb 	str	r2, [r3, #-3835]	; 0xfffff105
    return ALT_E_SUCCESS;
}

bool alt_cache_l2_is_enabled(void)
{
    uint32_t ctrl = alt_read_word(ALT_MPUL2_CONTROL_ADDR);
    1820:	e3e01801 	mvn	r1, #65536	; 0x10000
    1824:	e5113eff 	ldr	r3, [r1, #-3839]	; 0xfffff101
    if ((ctrl & ALT_MPUL2_CONTROL_EN_SET_MSK) != 0)
    1828:	e3130001 	tst	r3, #1
    182c:	1a000008 	bne	1854 <alt_cache_system_enable+0x138>
    int i = 0;

    /* Invalidate by way, all ways.
     / For more information, see L2C-310, section 3.3.10. */

    alt_write_word(ALT_MPUL2_INV_WAY_ADDR, alt_cache_l2_waymask);
    1830:	e5903000 	ldr	r3, [r0]
    1834:	e5013883 	str	r3, [r1, #-2179]	; 0xfffff77d

    while (alt_read_word(ALT_MPUL2_INV_WAY_ADDR))
    1838:	e5113883 	ldr	r3, [r1, #-2179]	; 0xfffff77d
    183c:	e3530000 	cmp	r3, #0
    1840:	13a03a01 	movne	r3, #4096	; 0x1000
    1844:	1a000006 	bne	1864 <alt_cache_system_enable+0x148>
ALT_STATUS_CODE alt_cache_l2_enable(void)
{
    if (!alt_cache_l2_is_enabled())
    {
        alt_cache_l2_invalidate_all();
        alt_write_word(ALT_MPUL2_CONTROL_ADDR, ALT_MPUL2_CONTROL_EN_SET_MSK);
    1848:	e3a02001 	mov	r2, #1
    184c:	e3e03801 	mvn	r3, #65536	; 0x10000
    1850:	e5032eff 	str	r2, [r3, #-3839]	; 0xfffff101
    alt_cache_l2_prefetch_enable();
    alt_cache_l2_parity_enable();
    alt_cache_l2_enable();

    return ALT_E_SUCCESS;
}
    1854:	e3a00000 	mov	r0, #0
    1858:	e8bd8008 	pop	{r3, pc}

    while (alt_read_word(ALT_MPUL2_INV_WAY_ADDR))
    {
        /* Background operation still in progress. */

        if (i == ALT_CACHE_L2_INVALIDATE_ALL_TIMEOUT)
    185c:	e2533001 	subs	r3, r3, #1
    1860:	0afffff8 	beq	1848 <alt_cache_system_enable+0x12c>
    /* Invalidate by way, all ways.
     / For more information, see L2C-310, section 3.3.10. */

    alt_write_word(ALT_MPUL2_INV_WAY_ADDR, alt_cache_l2_waymask);

    while (alt_read_word(ALT_MPUL2_INV_WAY_ADDR))
    1864:	e5112883 	ldr	r2, [r1, #-2179]	; 0xfffff77d
    1868:	e3520000 	cmp	r2, #0
    186c:	1afffffa 	bne	185c <alt_cache_system_enable+0x140>
    1870:	eafffff4 	b	1848 <alt_cache_system_enable+0x12c>

00001874 <alt_cache_l1_parity_disable>:
#elif defined(__ARMCC_VERSION)
    __asm("MRC p15, 0, actlr,    c1, c0, 1");
#elif defined(_MSC_VER)
	actlr = 0;
#else
    __asm("MRC p15, 0, %0,       c1, c0, 1" : "=r" (actlr));
    1874:	ee113f30 	mrc	15, 0, r3, cr1, cr0, {1}
}

ALT_STATUS_CODE alt_cache_l1_parity_disable(void)
{
    uint32_t actlr = actlr_read_helper();
    actlr &= ~ALT_CPU_ACTLR_PARITYON_SET_MSK;
    1878:	e3c33c02 	bic	r3, r3, #512	; 0x200
    __asm("MCR p15, 0, %[actlr], c1, c0, 1" : : [actlr] "r" (actlr));
#elif defined(__ARMCC_VERSION)
    __asm("MCR p15, 0, actlr,    c1, c0, 1");
#elif defined(_MSC_VER)
#else
    __asm("MCR p15, 0, %0,       c1, c0, 1" : : "r" (actlr));
    187c:	ee013f30 	mcr	15, 0, r3, cr1, cr0, {1}
    uint32_t actlr = actlr_read_helper();
    actlr &= ~ALT_CPU_ACTLR_PARITYON_SET_MSK;
    actlr_write_helper(actlr);

    return ALT_E_SUCCESS;
}
    1880:	e3a00000 	mov	r0, #0
    1884:	e12fff1e 	bx	lr

00001888 <alt_cache_l1_parity_is_enabled>:
#elif defined(__ARMCC_VERSION)
    __asm("MRC p15, 0, actlr,    c1, c0, 1");
#elif defined(_MSC_VER)
	actlr = 0;
#else
    __asm("MRC p15, 0, %0,       c1, c0, 1" : "=r" (actlr));
    1888:	ee110f30 	mrc	15, 0, r0, cr1, cr0, {1}
    }
    else
    {
        return false;
    }
}
    188c:	e7e004d0 	ubfx	r0, r0, #9, #1
    1890:	e12fff1e 	bx	lr

00001894 <alt_cache_l1_branch_enable>:
    __asm("MCR p15, 0, %[dummy], c7, c1, 6" : : [dummy] "r" (dummy));
#elif defined(__ARMCC_VERSION)
    __asm("MCR p15, 0, dummy,    c7, c1, 6");
#elif defined(_MSC_VER)
#else
    __asm("MCR p15, 0, %0,       c7, c1, 6" : : "r" (dummy));
    1894:	e3a03000 	mov	r3, #0
    1898:	ee073fd1 	mcr	15, 0, r3, cr7, cr1, {6}
#endif

#if !defined(_MSC_VER)
	/* Ensure all cache maintenance operations complete before returning. */
	__asm("dsb");
    189c:	f57ff04f 	dsb	sy
#elif defined(__ARMCC_VERSION)
    __asm("MRC p15, 0, sctlr,    c1, c0, 0");
#elif defined(_MSC_VER)
	sctlr = 0;
#else
    __asm("MRC p15, 0, %0,       c1, c0, 0" : "=r" (sctlr));
    18a0:	ee113f10 	mrc	15, 0, r3, cr1, cr0, {0}
ALT_STATUS_CODE alt_cache_l1_branch_enable(void)
{
    uint32_t sctlr; 
    alt_cache_l1_branch_invalidate();
    sctlr = sctlr_read_helper();
    sctlr |= ALT_CPU_SCTLR_Z_SET_MSK;
    18a4:	e3833b02 	orr	r3, r3, #2048	; 0x800
    __asm("MCR p15, 0, %[sctlr], c1, c0, 0" : : [sctlr] "r" (sctlr));
#elif defined(__ARMCC_VERSION)
    __asm("MCR p15, 0, sctlr,    c1, c0, 0");
#elif defined(_MSC_VER)
#else
    __asm("MCR p15, 0, %0,       c1, c0, 0" : : "r" (sctlr));
    18a8:	ee013f10 	mcr	15, 0, r3, cr1, cr0, {0}
    sctlr = sctlr_read_helper();
    sctlr |= ALT_CPU_SCTLR_Z_SET_MSK;
    sctlr_write_helper(sctlr);

    return ALT_E_SUCCESS;
}
    18ac:	e3a00000 	mov	r0, #0
    18b0:	e12fff1e 	bx	lr

000018b4 <alt_cache_l1_branch_disable>:
#elif defined(__ARMCC_VERSION)
    __asm("MRC p15, 0, sctlr,    c1, c0, 0");
#elif defined(_MSC_VER)
	sctlr = 0;
#else
    __asm("MRC p15, 0, %0,       c1, c0, 0" : "=r" (sctlr));
    18b4:	ee113f10 	mrc	15, 0, r3, cr1, cr0, {0}
}

ALT_STATUS_CODE alt_cache_l1_branch_disable(void)
{
    uint32_t sctlr = sctlr_read_helper();
    sctlr &= ~ALT_CPU_SCTLR_Z_SET_MSK;
    18b8:	e3c33b02 	bic	r3, r3, #2048	; 0x800
    __asm("MCR p15, 0, %[sctlr], c1, c0, 0" : : [sctlr] "r" (sctlr));
#elif defined(__ARMCC_VERSION)
    __asm("MCR p15, 0, sctlr,    c1, c0, 0");
#elif defined(_MSC_VER)
#else
    __asm("MCR p15, 0, %0,       c1, c0, 0" : : "r" (sctlr));
    18bc:	ee013f10 	mcr	15, 0, r3, cr1, cr0, {0}
    uint32_t sctlr = sctlr_read_helper();
    sctlr &= ~ALT_CPU_SCTLR_Z_SET_MSK;
    sctlr_write_helper(sctlr);

    return ALT_E_SUCCESS;
}
    18c0:	e3a00000 	mov	r0, #0
    18c4:	e12fff1e 	bx	lr

000018c8 <alt_cache_l1_branch_invalidate>:
    __asm("MCR p15, 0, %[dummy], c7, c1, 6" : : [dummy] "r" (dummy));
#elif defined(__ARMCC_VERSION)
    __asm("MCR p15, 0, dummy,    c7, c1, 6");
#elif defined(_MSC_VER)
#else
    __asm("MCR p15, 0, %0,       c7, c1, 6" : : "r" (dummy));
    18c8:	e3a03000 	mov	r3, #0
    18cc:	ee073fd1 	mcr	15, 0, r3, cr7, cr1, {6}
#endif

#if !defined(_MSC_VER)
	/* Ensure all cache maintenance operations complete before returning. */
	__asm("dsb");
    18d0:	f57ff04f 	dsb	sy
#endif

    return ALT_E_SUCCESS;
}
    18d4:	e3a00000 	mov	r0, #0
    18d8:	e12fff1e 	bx	lr

000018dc <alt_cache_l1_branch_is_enabled>:
#elif defined(__ARMCC_VERSION)
    __asm("MRC p15, 0, sctlr,    c1, c0, 0");
#elif defined(_MSC_VER)
	sctlr = 0;
#else
    __asm("MRC p15, 0, %0,       c1, c0, 0" : "=r" (sctlr));
    18dc:	ee110f10 	mrc	15, 0, r0, cr1, cr0, {0}
    }
    else
    {
        return false;
    }
}
    18e0:	e7e005d0 	ubfx	r0, r0, #11, #1
    18e4:	e12fff1e 	bx	lr

000018e8 <alt_cache_l1_prefetch_enable>:
#elif defined(__ARMCC_VERSION)
    __asm("MRC p15, 0, actlr,    c1, c0, 1");
#elif defined(_MSC_VER)
	actlr = 0;
#else
    __asm("MRC p15, 0, %0,       c1, c0, 1" : "=r" (actlr));
    18e8:	ee113f30 	mrc	15, 0, r3, cr1, cr0, {1}
}

ALT_STATUS_CODE alt_cache_l1_prefetch_enable(void)
{
    uint32_t actlr = actlr_read_helper();
    actlr |= ALT_CPU_ACTLR_L1PREFETCHEN_SET_MSK;
    18ec:	e3833004 	orr	r3, r3, #4
    __asm("MCR p15, 0, %[actlr], c1, c0, 1" : : [actlr] "r" (actlr));
#elif defined(__ARMCC_VERSION)
    __asm("MCR p15, 0, actlr,    c1, c0, 1");
#elif defined(_MSC_VER)
#else
    __asm("MCR p15, 0, %0,       c1, c0, 1" : : "r" (actlr));
    18f0:	ee013f30 	mcr	15, 0, r3, cr1, cr0, {1}
    uint32_t actlr = actlr_read_helper();
    actlr |= ALT_CPU_ACTLR_L1PREFETCHEN_SET_MSK;
    actlr_write_helper(actlr);

    return ALT_E_SUCCESS;
}
    18f4:	e3a00000 	mov	r0, #0
    18f8:	e12fff1e 	bx	lr

000018fc <alt_cache_l1_prefetch_disable>:
#elif defined(__ARMCC_VERSION)
    __asm("MRC p15, 0, actlr,    c1, c0, 1");
#elif defined(_MSC_VER)
	actlr = 0;
#else
    __asm("MRC p15, 0, %0,       c1, c0, 1" : "=r" (actlr));
    18fc:	ee113f30 	mrc	15, 0, r3, cr1, cr0, {1}
}

ALT_STATUS_CODE alt_cache_l1_prefetch_disable(void)
{
    uint32_t actlr = actlr_read_helper();
    actlr &= ~ALT_CPU_ACTLR_L1PREFETCHEN_SET_MSK;
    1900:	e3c33004 	bic	r3, r3, #4
    __asm("MCR p15, 0, %[actlr], c1, c0, 1" : : [actlr] "r" (actlr));
#elif defined(__ARMCC_VERSION)
    __asm("MCR p15, 0, actlr,    c1, c0, 1");
#elif defined(_MSC_VER)
#else
    __asm("MCR p15, 0, %0,       c1, c0, 1" : : "r" (actlr));
    1904:	ee013f30 	mcr	15, 0, r3, cr1, cr0, {1}
    uint32_t actlr = actlr_read_helper();
    actlr &= ~ALT_CPU_ACTLR_L1PREFETCHEN_SET_MSK;
    actlr_write_helper(actlr);

    return ALT_E_SUCCESS;
}
    1908:	e3a00000 	mov	r0, #0
    190c:	e12fff1e 	bx	lr

00001910 <alt_cache_l1_prefetch_is_enabled>:
#elif defined(__ARMCC_VERSION)
    __asm("MRC p15, 0, actlr,    c1, c0, 1");
#elif defined(_MSC_VER)
	actlr = 0;
#else
    __asm("MRC p15, 0, %0,       c1, c0, 1" : "=r" (actlr));
    1910:	ee110f30 	mrc	15, 0, r0, cr1, cr0, {1}
    }
    else
    {
        return false;
    }
}
    1914:	e7e00150 	ubfx	r0, r0, #2, #1
    1918:	e12fff1e 	bx	lr

0000191c <alt_cache_l2_init>:
{


    /* Query the cache characteristics */

    uint32_t auxctrl = alt_read_word(ALT_MPUL2_AUX_CONTROL_ADDR);
    191c:	e3e03801 	mvn	r3, #65536	; 0x10000
    1920:	e3092fe0 	movw	r2, #40928	; 0x9fe0
    1924:	e5130efb 	ldr	r0, [r3, #-3835]	; 0xfffff105

    if (auxctrl & ALT_MPUL2_AUX_CONTROL_ASSOCIATIVITY_SET_MSK)
    {
        alt_cache_l2_waymask = 0x0000ffff;
    1928:	e30fcfff 	movw	r12, #65535	; 0xffff
    192c:	e3402001 	movt	r2, #1
     * (Not needed as the associated lines are by default set to the instantiation parameters) */

    /* Invalidate by way all cache entries
     * (Not needed as it will be invalidated when L2 is enabled) */

    alt_write_word(ALT_MPUL2_TAG_RAM_CONTROL_ADDR,
    1930:	e3a01000 	mov	r1, #0

    /* Query the cache characteristics */

    uint32_t auxctrl = alt_read_word(ALT_MPUL2_AUX_CONTROL_ADDR);

    if (auxctrl & ALT_MPUL2_AUX_CONTROL_ASSOCIATIVITY_SET_MSK)
    1934:	e3100801 	tst	r0, #65536	; 0x10000
    
    /* Clear interrupts just in case. */
    alt_cache_l2_int_status_clear(ALT_CACHE_L2_INTERRUPT_ALL);

    return ALT_E_SUCCESS;
}
    1938:	e1a00001 	mov	r0, r1

    uint32_t auxctrl = alt_read_word(ALT_MPUL2_AUX_CONTROL_ADDR);

    if (auxctrl & ALT_MPUL2_AUX_CONTROL_ASSOCIATIVITY_SET_MSK)
    {
        alt_cache_l2_waymask = 0x0000ffff;
    193c:	03a0c0ff 	moveq	r12, #255	; 0xff
    1940:	e582c000 	str	r12, [r2]
    alt_write_word(ALT_MPUL2_TAG_RAM_CONTROL_ADDR,
                     ALT_MPUL2_TAG_RAM_CONTROL_WRITE_LATENCY_VALUE_SET(0)
                   | ALT_MPUL2_TAG_RAM_CONTROL_READ_LATENCY_VALUE_SET(0)
                   | ALT_MPUL2_TAG_RAM_CONTROL_SETUP_LATENCY_VALUE_SET(0));

    alt_write_word(ALT_MPUL2_DATA_RAM_CONTROL_ADDR,
    1944:	e3a02010 	mov	r2, #16
     * (Not needed as the associated lines are by default set to the instantiation parameters) */

    /* Invalidate by way all cache entries
     * (Not needed as it will be invalidated when L2 is enabled) */

    alt_write_word(ALT_MPUL2_TAG_RAM_CONTROL_ADDR,
    1948:	e5031ef7 	str	r1, [r3, #-3831]	; 0xfffff109
                     ALT_MPUL2_TAG_RAM_CONTROL_WRITE_LATENCY_VALUE_SET(0)
                   | ALT_MPUL2_TAG_RAM_CONTROL_READ_LATENCY_VALUE_SET(0)
                   | ALT_MPUL2_TAG_RAM_CONTROL_SETUP_LATENCY_VALUE_SET(0));

    alt_write_word(ALT_MPUL2_DATA_RAM_CONTROL_ADDR,
    194c:	e5032ef3 	str	r2, [r3, #-3827]	; 0xfffff10d
    if ((interrupt & ALT_CACHE_L2_INTERRUPT_ALL) == 0)
    {
        return ALT_E_BAD_ARG;
    }

    alt_write_word(ALT_MPUL2_INT_CLEAR_ADDR, interrupt);
    1950:	e30021ff 	movw	r2, #511	; 0x1ff
    1954:	e5032ddf 	str	r2, [r3, #-3551]	; 0xfffff221
    
    /* Clear interrupts just in case. */
    alt_cache_l2_int_status_clear(ALT_CACHE_L2_INTERRUPT_ALL);

    return ALT_E_SUCCESS;
}
    1958:	e12fff1e 	bx	lr

0000195c <alt_cache_l2_uninit>:

ALT_STATUS_CODE alt_cache_l2_uninit(void)
{
    return ALT_E_SUCCESS;
}
    195c:	e3a00000 	mov	r0, #0
    1960:	e12fff1e 	bx	lr

00001964 <alt_cache_l2_prefetch_enable>:
{
    /* Use the Prefetch Control Register instead of Aux Control. This is
     / because the Prefetch Control can be changed while the L2 is enabled.
     / For more information, see L2C-310, section 3.3.14. */

    alt_setbits_word(ALT_MPUL2_PREFETCH_CTRL_ADDR, ALT_MPUL2_PREFETCH_CTRL_PF_EN_SET_MSK);
    1964:	e3e03801 	mvn	r3, #65536	; 0x10000

    return ALT_E_SUCCESS;
}
    1968:	e3a00000 	mov	r0, #0
{
    /* Use the Prefetch Control Register instead of Aux Control. This is
     / because the Prefetch Control can be changed while the L2 is enabled.
     / For more information, see L2C-310, section 3.3.14. */

    alt_setbits_word(ALT_MPUL2_PREFETCH_CTRL_ADDR, ALT_MPUL2_PREFETCH_CTRL_PF_EN_SET_MSK);
    196c:	e513209f 	ldr	r2, [r3, #-159]	; 0xffffff61
    1970:	e3822203 	orr	r2, r2, #805306368	; 0x30000000
    1974:	e503209f 	str	r2, [r3, #-159]	; 0xffffff61

    return ALT_E_SUCCESS;
}
    1978:	e12fff1e 	bx	lr

0000197c <alt_cache_l2_prefetch_disable>:
{
    /* Use the Prefetch Control Register instead of Aux Control. This is
     / because the Prefetch Control can be changed while the L2 is enabled.
     / For more information, see L2C-310, section 3.3.14. */

    alt_clrbits_word(ALT_MPUL2_PREFETCH_CTRL_ADDR, ALT_MPUL2_PREFETCH_CTRL_PF_EN_SET_MSK);
    197c:	e3e03801 	mvn	r3, #65536	; 0x10000

    return ALT_E_SUCCESS;
}
    1980:	e3a00000 	mov	r0, #0
{
    /* Use the Prefetch Control Register instead of Aux Control. This is
     / because the Prefetch Control can be changed while the L2 is enabled.
     / For more information, see L2C-310, section 3.3.14. */

    alt_clrbits_word(ALT_MPUL2_PREFETCH_CTRL_ADDR, ALT_MPUL2_PREFETCH_CTRL_PF_EN_SET_MSK);
    1984:	e513209f 	ldr	r2, [r3, #-159]	; 0xffffff61
    1988:	e3c22203 	bic	r2, r2, #805306368	; 0x30000000
    198c:	e503209f 	str	r2, [r3, #-159]	; 0xffffff61

    return ALT_E_SUCCESS;
}
    1990:	e12fff1e 	bx	lr

00001994 <alt_cache_l2_prefetch_is_enabled>:
bool alt_cache_l2_prefetch_is_enabled(void)
{
    /* Query the Prefetch Control Register.
     / For more information, see L2C-310, section 3.3.14. */

    uint32_t pfctrl = alt_read_word(ALT_MPUL2_PREFETCH_CTRL_ADDR);
    1994:	e3e03801 	mvn	r3, #65536	; 0x10000
    1998:	e513009f 	ldr	r0, [r3, #-159]	; 0xffffff61

    if ((pfctrl & ALT_MPUL2_PREFETCH_CTRL_PF_EN_SET_MSK) == ALT_MPUL2_PREFETCH_CTRL_PF_EN_SET_MSK)
    199c:	e2000203 	and	r0, r0, #805306368	; 0x30000000
    }
    else
    {
        return false;
    }
}
    19a0:	e2503203 	subs	r3, r0, #805306368	; 0x30000000
    19a4:	e2730000 	rsbs	r0, r3, #0
    19a8:	e0b00003 	adcs	r0, r0, r3
    19ac:	e12fff1e 	bx	lr

000019b0 <alt_cache_l2_parity_enable>:
    return ALT_E_SUCCESS;
}

bool alt_cache_l2_is_enabled(void)
{
    uint32_t ctrl = alt_read_word(ALT_MPUL2_CONTROL_ADDR);
    19b0:	e3e02801 	mvn	r2, #65536	; 0x10000
    19b4:	e5123eff 	ldr	r3, [r2, #-3839]	; 0xfffff101
    if ((ctrl & ALT_MPUL2_CONTROL_EN_SET_MSK) != 0)
    19b8:	e3130001 	tst	r3, #1
    19bc:	0a00002e 	beq	1a7c <alt_cache_l2_parity_enable+0xcc>
    return ALT_E_SUCCESS;
}

bool alt_cache_l2_is_enabled(void)
{
    uint32_t ctrl = alt_read_word(ALT_MPUL2_CONTROL_ADDR);
    19c0:	e5123eff 	ldr	r3, [r2, #-3839]	; 0xfffff101
    if ((ctrl & ALT_MPUL2_CONTROL_EN_SET_MSK) != 0)
    19c4:	e3130001 	tst	r3, #1
    19c8:	0a000011 	beq	1a14 <alt_cache_l2_parity_enable+0x64>
    int i = 0;

    /*Clean and invalidate by way, all ways.
    /  For more information, see L2C-310, section 3.3.10. */

    alt_write_word(ALT_MPUL2_CLEAN_INV_WAY_ADDR, alt_cache_l2_waymask);
    19cc:	e3093fe0 	movw	r3, #40928	; 0x9fe0
    19d0:	e3403001 	movt	r3, #1
    19d4:	e5933000 	ldr	r3, [r3]
    19d8:	e5023803 	str	r3, [r2, #-2051]	; 0xfffff7fd

    while (alt_read_word(ALT_MPUL2_CLEAN_INV_WAY_ADDR))
    19dc:	e5123803 	ldr	r3, [r2, #-2051]	; 0xfffff7fd
    19e0:	e3530000 	cmp	r3, #0
    19e4:	13a03801 	movne	r3, #65536	; 0x10000
    19e8:	11a01002 	movne	r1, r2
    19ec:	1a000002 	bne	19fc <alt_cache_l2_parity_enable+0x4c>
    19f0:	ea000004 	b	1a08 <alt_cache_l2_parity_enable+0x58>
    {
        /* Background operation still in progress. */

        if (i == ALT_CACHE_L2_PURGE_ALL_TIMEOUT)
    19f4:	e2533001 	subs	r3, r3, #1
    19f8:	0a000002 	beq	1a08 <alt_cache_l2_parity_enable+0x58>
    /*Clean and invalidate by way, all ways.
    /  For more information, see L2C-310, section 3.3.10. */

    alt_write_word(ALT_MPUL2_CLEAN_INV_WAY_ADDR, alt_cache_l2_waymask);

    while (alt_read_word(ALT_MPUL2_CLEAN_INV_WAY_ADDR))
    19fc:	e5112803 	ldr	r2, [r1, #-2051]	; 0xfffff7fd
    1a00:	e3520000 	cmp	r2, #0
    1a04:	1afffffa 	bne	19f4 <alt_cache_l2_parity_enable+0x44>
ALT_STATUS_CODE alt_cache_l2_disable(void)
{
    if (alt_cache_l2_is_enabled())
    {
        alt_cache_l2_purge_all();
        alt_write_word(ALT_MPUL2_CONTROL_ADDR, 0);
    1a08:	e3a02000 	mov	r2, #0
    1a0c:	e3e03801 	mvn	r3, #65536	; 0x10000
    1a10:	e5032eff 	str	r2, [r3, #-3839]	; 0xfffff101
    if (l2_enabled)
    {
        alt_cache_l2_disable();
    }

    alt_setbits_word(ALT_MPUL2_AUX_CONTROL_ADDR, ALT_MPUL2_AUX_CONTROL_PARITY_EN_SET_MSK);
    1a14:	e3e01801 	mvn	r1, #65536	; 0x10000
    1a18:	e5113efb 	ldr	r3, [r1, #-3835]	; 0xfffff105
    1a1c:	e3833602 	orr	r3, r3, #2097152	; 0x200000
    1a20:	e5013efb 	str	r3, [r1, #-3835]	; 0xfffff105
    return ALT_E_SUCCESS;
}

bool alt_cache_l2_is_enabled(void)
{
    uint32_t ctrl = alt_read_word(ALT_MPUL2_CONTROL_ADDR);
    1a24:	e5113eff 	ldr	r3, [r1, #-3839]	; 0xfffff101
    if ((ctrl & ALT_MPUL2_CONTROL_EN_SET_MSK) != 0)
    1a28:	e3130001 	tst	r3, #1
    1a2c:	1a000015 	bne	1a88 <alt_cache_l2_parity_enable+0xd8>
    int i = 0;

    /* Invalidate by way, all ways.
     / For more information, see L2C-310, section 3.3.10. */

    alt_write_word(ALT_MPUL2_INV_WAY_ADDR, alt_cache_l2_waymask);
    1a30:	e3093fe0 	movw	r3, #40928	; 0x9fe0
    1a34:	e3403001 	movt	r3, #1
    1a38:	e5933000 	ldr	r3, [r3]
    1a3c:	e5013883 	str	r3, [r1, #-2179]	; 0xfffff77d

    while (alt_read_word(ALT_MPUL2_INV_WAY_ADDR))
    1a40:	e5113883 	ldr	r3, [r1, #-2179]	; 0xfffff77d
    1a44:	e3530000 	cmp	r3, #0
    1a48:	13a03a01 	movne	r3, #4096	; 0x1000
    1a4c:	1a000002 	bne	1a5c <alt_cache_l2_parity_enable+0xac>
    1a50:	ea000004 	b	1a68 <alt_cache_l2_parity_enable+0xb8>
    {
        /* Background operation still in progress. */

        if (i == ALT_CACHE_L2_INVALIDATE_ALL_TIMEOUT)
    1a54:	e2533001 	subs	r3, r3, #1
    1a58:	0a000002 	beq	1a68 <alt_cache_l2_parity_enable+0xb8>
    /* Invalidate by way, all ways.
     / For more information, see L2C-310, section 3.3.10. */

    alt_write_word(ALT_MPUL2_INV_WAY_ADDR, alt_cache_l2_waymask);

    while (alt_read_word(ALT_MPUL2_INV_WAY_ADDR))
    1a5c:	e5112883 	ldr	r2, [r1, #-2179]	; 0xfffff77d
    1a60:	e3520000 	cmp	r2, #0
    1a64:	1afffffa 	bne	1a54 <alt_cache_l2_parity_enable+0xa4>
ALT_STATUS_CODE alt_cache_l2_enable(void)
{
    if (!alt_cache_l2_is_enabled())
    {
        alt_cache_l2_invalidate_all();
        alt_write_word(ALT_MPUL2_CONTROL_ADDR, ALT_MPUL2_CONTROL_EN_SET_MSK);
    1a68:	e3a02001 	mov	r2, #1
    1a6c:	e3e03801 	mvn	r3, #65536	; 0x10000
    1a70:	e5032eff 	str	r2, [r3, #-3839]	; 0xfffff101
    {
        alt_cache_l2_enable();
    }

    return ALT_E_SUCCESS;
}
    1a74:	e3a00000 	mov	r0, #0
    1a78:	e12fff1e 	bx	lr
    if (l2_enabled)
    {
        alt_cache_l2_disable();
    }

    alt_setbits_word(ALT_MPUL2_AUX_CONTROL_ADDR, ALT_MPUL2_AUX_CONTROL_PARITY_EN_SET_MSK);
    1a7c:	e5123efb 	ldr	r3, [r2, #-3835]	; 0xfffff105
    1a80:	e3833602 	orr	r3, r3, #2097152	; 0x200000
    1a84:	e5023efb 	str	r3, [r2, #-3835]	; 0xfffff105
    {
        alt_cache_l2_enable();
    }

    return ALT_E_SUCCESS;
}
    1a88:	e3a00000 	mov	r0, #0
    1a8c:	e12fff1e 	bx	lr

00001a90 <alt_cache_l2_parity_disable>:

ALT_STATUS_CODE alt_cache_l2_parity_disable(void)
{
    alt_clrbits_word(ALT_MPUL2_AUX_CONTROL_ADDR, ALT_MPUL2_AUX_CONTROL_PARITY_EN_SET_MSK);
    1a90:	e3e03801 	mvn	r3, #65536	; 0x10000
    return ALT_E_SUCCESS;
}
    1a94:	e3a00000 	mov	r0, #0
    return ALT_E_SUCCESS;
}

ALT_STATUS_CODE alt_cache_l2_parity_disable(void)
{
    alt_clrbits_word(ALT_MPUL2_AUX_CONTROL_ADDR, ALT_MPUL2_AUX_CONTROL_PARITY_EN_SET_MSK);
    1a98:	e5132efb 	ldr	r2, [r3, #-3835]	; 0xfffff105
    1a9c:	e3c22602 	bic	r2, r2, #2097152	; 0x200000
    1aa0:	e5032efb 	str	r2, [r3, #-3835]	; 0xfffff105
    return ALT_E_SUCCESS;
}
    1aa4:	e12fff1e 	bx	lr

00001aa8 <alt_cache_l2_parity_is_enabled>:

bool alt_cache_l2_parity_is_enabled(void)
{
    uint32_t auxctrl = alt_read_word(ALT_MPUL2_AUX_CONTROL_ADDR);
    1aa8:	e3e03801 	mvn	r3, #65536	; 0x10000
    1aac:	e5130efb 	ldr	r0, [r3, #-3835]	; 0xfffff105
    }
    else
    {
        return false;
    }
}
    1ab0:	e7e00ad0 	ubfx	r0, r0, #21, #1
    1ab4:	e12fff1e 	bx	lr

00001ab8 <alt_cache_l2_enable>:
    return ALT_E_SUCCESS;
}

bool alt_cache_l2_is_enabled(void)
{
    uint32_t ctrl = alt_read_word(ALT_MPUL2_CONTROL_ADDR);
    1ab8:	e3e01801 	mvn	r1, #65536	; 0x10000
    1abc:	e5113eff 	ldr	r3, [r1, #-3839]	; 0xfffff101
    if ((ctrl & ALT_MPUL2_CONTROL_EN_SET_MSK) != 0)
    1ac0:	e3130001 	tst	r3, #1
    1ac4:	1a00000a 	bne	1af4 <alt_cache_l2_enable+0x3c>
    int i = 0;

    /* Invalidate by way, all ways.
     / For more information, see L2C-310, section 3.3.10. */

    alt_write_word(ALT_MPUL2_INV_WAY_ADDR, alt_cache_l2_waymask);
    1ac8:	e3093fe0 	movw	r3, #40928	; 0x9fe0
    1acc:	e3403001 	movt	r3, #1
    1ad0:	e5933000 	ldr	r3, [r3]
    1ad4:	e5013883 	str	r3, [r1, #-2179]	; 0xfffff77d

    while (alt_read_word(ALT_MPUL2_INV_WAY_ADDR))
    1ad8:	e5113883 	ldr	r3, [r1, #-2179]	; 0xfffff77d
    1adc:	e3530000 	cmp	r3, #0
    1ae0:	13a03a01 	movne	r3, #4096	; 0x1000
    1ae4:	1a000006 	bne	1b04 <alt_cache_l2_enable+0x4c>
ALT_STATUS_CODE alt_cache_l2_enable(void)
{
    if (!alt_cache_l2_is_enabled())
    {
        alt_cache_l2_invalidate_all();
        alt_write_word(ALT_MPUL2_CONTROL_ADDR, ALT_MPUL2_CONTROL_EN_SET_MSK);
    1ae8:	e3a02001 	mov	r2, #1
    1aec:	e3e03801 	mvn	r3, #65536	; 0x10000
    1af0:	e5032eff 	str	r2, [r3, #-3839]	; 0xfffff101
    }

    return ALT_E_SUCCESS;
}
    1af4:	e3a00000 	mov	r0, #0
    1af8:	e12fff1e 	bx	lr

    while (alt_read_word(ALT_MPUL2_INV_WAY_ADDR))
    {
        /* Background operation still in progress. */

        if (i == ALT_CACHE_L2_INVALIDATE_ALL_TIMEOUT)
    1afc:	e2533001 	subs	r3, r3, #1
    1b00:	0afffff8 	beq	1ae8 <alt_cache_l2_enable+0x30>
    /* Invalidate by way, all ways.
     / For more information, see L2C-310, section 3.3.10. */

    alt_write_word(ALT_MPUL2_INV_WAY_ADDR, alt_cache_l2_waymask);

    while (alt_read_word(ALT_MPUL2_INV_WAY_ADDR))
    1b04:	e5112883 	ldr	r2, [r1, #-2179]	; 0xfffff77d
    1b08:	e3520000 	cmp	r2, #0
    1b0c:	1afffffa 	bne	1afc <alt_cache_l2_enable+0x44>
    1b10:	eafffff4 	b	1ae8 <alt_cache_l2_enable+0x30>

00001b14 <alt_cache_l2_disable>:
    return ALT_E_SUCCESS;
}

bool alt_cache_l2_is_enabled(void)
{
    uint32_t ctrl = alt_read_word(ALT_MPUL2_CONTROL_ADDR);
    1b14:	e3e01801 	mvn	r1, #65536	; 0x10000
    1b18:	e5113eff 	ldr	r3, [r1, #-3839]	; 0xfffff101
    if ((ctrl & ALT_MPUL2_CONTROL_EN_SET_MSK) != 0)
    1b1c:	e3130001 	tst	r3, #1
    1b20:	0a00000a 	beq	1b50 <alt_cache_l2_disable+0x3c>
    int i = 0;

    /*Clean and invalidate by way, all ways.
    /  For more information, see L2C-310, section 3.3.10. */

    alt_write_word(ALT_MPUL2_CLEAN_INV_WAY_ADDR, alt_cache_l2_waymask);
    1b24:	e3093fe0 	movw	r3, #40928	; 0x9fe0
    1b28:	e3403001 	movt	r3, #1
    1b2c:	e5933000 	ldr	r3, [r3]
    1b30:	e5013803 	str	r3, [r1, #-2051]	; 0xfffff7fd

    while (alt_read_word(ALT_MPUL2_CLEAN_INV_WAY_ADDR))
    1b34:	e5113803 	ldr	r3, [r1, #-2051]	; 0xfffff7fd
    1b38:	e3530000 	cmp	r3, #0
    1b3c:	13a03801 	movne	r3, #65536	; 0x10000
    1b40:	1a000006 	bne	1b60 <alt_cache_l2_disable+0x4c>
ALT_STATUS_CODE alt_cache_l2_disable(void)
{
    if (alt_cache_l2_is_enabled())
    {
        alt_cache_l2_purge_all();
        alt_write_word(ALT_MPUL2_CONTROL_ADDR, 0);
    1b44:	e3a02000 	mov	r2, #0
    1b48:	e3e03801 	mvn	r3, #65536	; 0x10000
    1b4c:	e5032eff 	str	r2, [r3, #-3839]	; 0xfffff101
    }

    return ALT_E_SUCCESS;
}
    1b50:	e3a00000 	mov	r0, #0
    1b54:	e12fff1e 	bx	lr

    while (alt_read_word(ALT_MPUL2_CLEAN_INV_WAY_ADDR))
    {
        /* Background operation still in progress. */

        if (i == ALT_CACHE_L2_PURGE_ALL_TIMEOUT)
    1b58:	e2533001 	subs	r3, r3, #1
    1b5c:	0afffff8 	beq	1b44 <alt_cache_l2_disable+0x30>
    /*Clean and invalidate by way, all ways.
    /  For more information, see L2C-310, section 3.3.10. */

    alt_write_word(ALT_MPUL2_CLEAN_INV_WAY_ADDR, alt_cache_l2_waymask);

    while (alt_read_word(ALT_MPUL2_CLEAN_INV_WAY_ADDR))
    1b60:	e5112803 	ldr	r2, [r1, #-2051]	; 0xfffff7fd
    1b64:	e3520000 	cmp	r2, #0
    1b68:	1afffffa 	bne	1b58 <alt_cache_l2_disable+0x44>
    1b6c:	eafffff4 	b	1b44 <alt_cache_l2_disable+0x30>

00001b70 <alt_cache_l2_is_enabled>:
    return ALT_E_SUCCESS;
}

bool alt_cache_l2_is_enabled(void)
{
    uint32_t ctrl = alt_read_word(ALT_MPUL2_CONTROL_ADDR);
    1b70:	e3e03801 	mvn	r3, #65536	; 0x10000
    1b74:	e5130eff 	ldr	r0, [r3, #-3839]	; 0xfffff101
    }
    else
    {
        return false;
    }
}
    1b78:	e2000001 	and	r0, r0, #1
    1b7c:	e12fff1e 	bx	lr

00001b80 <alt_cache_l2_sync>:
    int i = 0;

    /* Issue cache sync command, then wait for it to complete by polling the same register.
     / For more information, see L2C-310, section 3.3.10. */

    alt_write_word(ALT_MPUL2_CACHE_SYNC_ADDR, 0);
    1b80:	e3a03000 	mov	r3, #0
    1b84:	e3e02801 	mvn	r2, #65536	; 0x10000
    1b88:	e50238cf 	str	r3, [r2, #-2255]	; 0xfffff731

    while (alt_read_word(ALT_MPUL2_CACHE_SYNC_ADDR))
    1b8c:	e51208cf 	ldr	r0, [r2, #-2255]	; 0xfffff731
    1b90:	e1500003 	cmp	r0, r3
    1b94:	13a03080 	movne	r3, #128	; 0x80
    1b98:	1a000002 	bne	1ba8 <alt_cache_l2_sync+0x28>
    1b9c:	ea000007 	b	1bc0 <alt_cache_l2_sync+0x40>
    {
        /* Atomic operation still in progress. */

        if (i == ALT_CACHE_L2_SYNC_TIMEOUT)
    1ba0:	e2533001 	subs	r3, r3, #1
    1ba4:	0a000003 	beq	1bb8 <alt_cache_l2_sync+0x38>
    /* Issue cache sync command, then wait for it to complete by polling the same register.
     / For more information, see L2C-310, section 3.3.10. */

    alt_write_word(ALT_MPUL2_CACHE_SYNC_ADDR, 0);

    while (alt_read_word(ALT_MPUL2_CACHE_SYNC_ADDR))
    1ba8:	e51208cf 	ldr	r0, [r2, #-2255]	; 0xfffff731
    1bac:	e3500000 	cmp	r0, #0
    1bb0:	1afffffa 	bne	1ba0 <alt_cache_l2_sync+0x20>
    1bb4:	e12fff1e 	bx	lr
    {
        /* Atomic operation still in progress. */

        if (i == ALT_CACHE_L2_SYNC_TIMEOUT)
        {
            return ALT_E_TMO;
    1bb8:	e3e0000b 	mvn	r0, #11
    }

    dprintf("CACHE[L2]: Sync time = %d.\n", i);

    return ALT_E_SUCCESS;
}
    1bbc:	e12fff1e 	bx	lr
    1bc0:	e12fff1e 	bx	lr

00001bc4 <alt_cache_l2_invalidate>:
ALT_STATUS_CODE alt_cache_l2_invalidate(void * paddress, size_t length)
{
    /* Verify preconditions:
     /  - length is non-zero
     /  - address and length are on the cache boundaries */
    if (length == 0)
    1bc4:	e3510000 	cmp	r1, #0
    1bc8:	0a00001a 	beq	1c38 <alt_cache_l2_invalidate+0x74>
    {
        return ALT_E_BAD_ARG;
    }
    if (((uintptr_t)paddress & (ALT_CACHE_LINE_SIZE - 1)) != 0)
    1bcc:	e310001f 	tst	r0, #31
    1bd0:	1a000018 	bne	1c38 <alt_cache_l2_invalidate+0x74>
    {
        return ALT_E_BAD_ARG;
    }
    if ((length & (ALT_CACHE_LINE_SIZE - 1)) != 0)
    1bd4:	e311001f 	tst	r1, #31
    1bd8:	1a000016 	bne	1c38 <alt_cache_l2_invalidate+0x74>
    uintptr_t pa;

    /* For each stride: Issue invalidate line by PA command, then wait for it
     / to complete by polling the same register.
     / For more information, see L2C-310, section 3.3.10. */
    for (pa = paddress; pa < paddress + length; pa += ALT_CACHE_LINE_SIZE)
    1bdc:	e0803001 	add	r3, r0, r1
    1be0:	e1500003 	cmp	r0, r3
    1be4:	2a000004 	bcs	1bfc <alt_cache_l2_invalidate+0x38>
    {
        alt_write_word(ALT_MPUL2_INV_PA_ADDR, pa);
    1be8:	e3e02801 	mvn	r2, #65536	; 0x10000
    1bec:	e502088f 	str	r0, [r2, #-2191]	; 0xfffff771
    uintptr_t pa;

    /* For each stride: Issue invalidate line by PA command, then wait for it
     / to complete by polling the same register.
     / For more information, see L2C-310, section 3.3.10. */
    for (pa = paddress; pa < paddress + length; pa += ALT_CACHE_LINE_SIZE)
    1bf0:	e2800020 	add	r0, r0, #32
    1bf4:	e1500003 	cmp	r0, r3
    1bf8:	3afffffb 	bcc	1bec <alt_cache_l2_invalidate+0x28>
        alt_write_word(ALT_MPUL2_INV_PA_ADDR, pa);

        ++seg;
    }

    while (alt_read_word(ALT_MPUL2_INV_PA_ADDR))
    1bfc:	e3e02801 	mvn	r2, #65536	; 0x10000
    1c00:	e512088f 	ldr	r0, [r2, #-2191]	; 0xfffff771
    1c04:	e3500000 	cmp	r0, #0
    1c08:	13a03080 	movne	r3, #128	; 0x80
    1c0c:	1a000002 	bne	1c1c <alt_cache_l2_invalidate+0x58>
    1c10:	ea000005 	b	1c2c <alt_cache_l2_invalidate+0x68>
    {
        /* Atomic operation still in progress. */

        if (i == ALT_CACHE_L2_INVALIDATE_ADDR_TIMEOUT)
    1c14:	e2533001 	subs	r3, r3, #1
    1c18:	0a000004 	beq	1c30 <alt_cache_l2_invalidate+0x6c>
        alt_write_word(ALT_MPUL2_INV_PA_ADDR, pa);

        ++seg;
    }

    while (alt_read_word(ALT_MPUL2_INV_PA_ADDR))
    1c1c:	e512088f 	ldr	r0, [r2, #-2191]	; 0xfffff771
    1c20:	e3500000 	cmp	r0, #0
    1c24:	1afffffa 	bne	1c14 <alt_cache_l2_invalidate+0x50>
    1c28:	e12fff1e 	bx	lr
    {
        return ALT_E_BAD_ARG;
    }

    return alt_cache_l2_invalidate_helper((uintptr_t)paddress, length);
}
    1c2c:	e12fff1e 	bx	lr
    {
        /* Atomic operation still in progress. */

        if (i == ALT_CACHE_L2_INVALIDATE_ADDR_TIMEOUT)
        {
            return ALT_E_TMO;
    1c30:	e3e0000b 	mvn	r0, #11
    1c34:	e12fff1e 	bx	lr
    /* Verify preconditions:
     /  - length is non-zero
     /  - address and length are on the cache boundaries */
    if (length == 0)
    {
        return ALT_E_BAD_ARG;
    1c38:	e3e00008 	mvn	r0, #8
    1c3c:	e12fff1e 	bx	lr

00001c40 <alt_cache_l2_invalidate_all>:
    int i = 0;

    /* Invalidate by way, all ways.
     / For more information, see L2C-310, section 3.3.10. */

    alt_write_word(ALT_MPUL2_INV_WAY_ADDR, alt_cache_l2_waymask);
    1c40:	e3093fe0 	movw	r3, #40928	; 0x9fe0
    1c44:	e3e02801 	mvn	r2, #65536	; 0x10000
    1c48:	e3403001 	movt	r3, #1
    1c4c:	e5933000 	ldr	r3, [r3]
    1c50:	e5023883 	str	r3, [r2, #-2179]	; 0xfffff77d

    while (alt_read_word(ALT_MPUL2_INV_WAY_ADDR))
    1c54:	e5120883 	ldr	r0, [r2, #-2179]	; 0xfffff77d
    1c58:	e3500000 	cmp	r0, #0
    1c5c:	13a03a01 	movne	r3, #4096	; 0x1000
    1c60:	1a000002 	bne	1c70 <alt_cache_l2_invalidate_all+0x30>
    1c64:	ea000007 	b	1c88 <alt_cache_l2_invalidate_all+0x48>
    {
        /* Background operation still in progress. */

        if (i == ALT_CACHE_L2_INVALIDATE_ALL_TIMEOUT)
    1c68:	e2533001 	subs	r3, r3, #1
    1c6c:	0a000003 	beq	1c80 <alt_cache_l2_invalidate_all+0x40>
    /* Invalidate by way, all ways.
     / For more information, see L2C-310, section 3.3.10. */

    alt_write_word(ALT_MPUL2_INV_WAY_ADDR, alt_cache_l2_waymask);

    while (alt_read_word(ALT_MPUL2_INV_WAY_ADDR))
    1c70:	e5120883 	ldr	r0, [r2, #-2179]	; 0xfffff77d
    1c74:	e3500000 	cmp	r0, #0
    1c78:	1afffffa 	bne	1c68 <alt_cache_l2_invalidate_all+0x28>
    1c7c:	e12fff1e 	bx	lr
    {
        /* Background operation still in progress. */

        if (i == ALT_CACHE_L2_INVALIDATE_ALL_TIMEOUT)
        {
            return ALT_E_TMO;
    1c80:	e3e0000b 	mvn	r0, #11
    }

    dprintf("CACHE[L2]: Invalidate All time = %d.\n", i);

    return ALT_E_SUCCESS;
}
    1c84:	e12fff1e 	bx	lr
    1c88:	e12fff1e 	bx	lr

00001c8c <alt_cache_l2_clean>:
ALT_STATUS_CODE alt_cache_l2_clean(void * paddress, size_t length)
{
    /* Verify preconditions:
     /  - length is non-zero
     /  - address and length are on the cache boundaries */
    if (length == 0)
    1c8c:	e3510000 	cmp	r1, #0
    1c90:	0a00001a 	beq	1d00 <alt_cache_l2_clean+0x74>
    {
        return ALT_E_BAD_ARG;
    }
    if (((uintptr_t)paddress & (ALT_CACHE_LINE_SIZE - 1)) != 0)
    1c94:	e310001f 	tst	r0, #31
    1c98:	1a000018 	bne	1d00 <alt_cache_l2_clean+0x74>
    {
        return ALT_E_BAD_ARG;
    }
    if ((length & (ALT_CACHE_LINE_SIZE - 1)) != 0)
    1c9c:	e311001f 	tst	r1, #31
    1ca0:	1a000016 	bne	1d00 <alt_cache_l2_clean+0x74>
    uintptr_t pa;

    /* For each stride: Issue clean line by PA command, then wait for it to
     / complete by polling the same register.
     / For more information, see L2C-310, section 3.3.10. */
    for (pa = paddress; pa < paddress + length; pa += ALT_CACHE_LINE_SIZE)
    1ca4:	e0803001 	add	r3, r0, r1
    1ca8:	e1500003 	cmp	r0, r3
    1cac:	2a000004 	bcs	1cc4 <alt_cache_l2_clean+0x38>
    {
        alt_write_word(ALT_MPUL2_CLEAN_PA_ADDR, pa);
    1cb0:	e3e02801 	mvn	r2, #65536	; 0x10000
    1cb4:	e502084f 	str	r0, [r2, #-2127]	; 0xfffff7b1
    uintptr_t pa;

    /* For each stride: Issue clean line by PA command, then wait for it to
     / complete by polling the same register.
     / For more information, see L2C-310, section 3.3.10. */
    for (pa = paddress; pa < paddress + length; pa += ALT_CACHE_LINE_SIZE)
    1cb8:	e2800020 	add	r0, r0, #32
    1cbc:	e1500003 	cmp	r0, r3
    1cc0:	3afffffb 	bcc	1cb4 <alt_cache_l2_clean+0x28>
        alt_write_word(ALT_MPUL2_CLEAN_PA_ADDR, pa);

        ++seg;
    }

    while (alt_read_word(ALT_MPUL2_CLEAN_PA_ADDR) & ALT_MPUL2_COMMON_PA_C_SET_MSK)
    1cc4:	e3e02801 	mvn	r2, #65536	; 0x10000
    1cc8:	e512084f 	ldr	r0, [r2, #-2127]	; 0xfffff7b1
    1ccc:	e2100001 	ands	r0, r0, #1
    1cd0:	13a03080 	movne	r3, #128	; 0x80
    1cd4:	1a000002 	bne	1ce4 <alt_cache_l2_clean+0x58>
    1cd8:	ea000005 	b	1cf4 <alt_cache_l2_clean+0x68>
    {
        /* Atomic operation still in progress. */

        if (i == ALT_CACHE_L2_CLEAN_ADDR_TIMEOUT)
    1cdc:	e2533001 	subs	r3, r3, #1
    1ce0:	0a000004 	beq	1cf8 <alt_cache_l2_clean+0x6c>
        alt_write_word(ALT_MPUL2_CLEAN_PA_ADDR, pa);

        ++seg;
    }

    while (alt_read_word(ALT_MPUL2_CLEAN_PA_ADDR) & ALT_MPUL2_COMMON_PA_C_SET_MSK)
    1ce4:	e512084f 	ldr	r0, [r2, #-2127]	; 0xfffff7b1
    1ce8:	e2100001 	ands	r0, r0, #1
    1cec:	1afffffa 	bne	1cdc <alt_cache_l2_clean+0x50>
    1cf0:	e12fff1e 	bx	lr
    {
        return ALT_E_BAD_ARG;
    }

    return alt_cache_l2_clean_helper((uintptr_t)paddress, length);
}
    1cf4:	e12fff1e 	bx	lr
    {
        /* Atomic operation still in progress. */

        if (i == ALT_CACHE_L2_CLEAN_ADDR_TIMEOUT)
        {
            return ALT_E_TMO;
    1cf8:	e3e0000b 	mvn	r0, #11
    1cfc:	e12fff1e 	bx	lr
    /* Verify preconditions:
     /  - length is non-zero
     /  - address and length are on the cache boundaries */
    if (length == 0)
    {
        return ALT_E_BAD_ARG;
    1d00:	e3e00008 	mvn	r0, #8
    1d04:	e12fff1e 	bx	lr

00001d08 <alt_cache_l2_clean_all>:
    int i = 0;

    /* Clean by way, all ways.
     / For more information, see L2C-310, section 3.3.10. */

    alt_write_word(ALT_MPUL2_CLEAN_WAY_ADDR, alt_cache_l2_waymask);
    1d08:	e3093fe0 	movw	r3, #40928	; 0x9fe0
    1d0c:	e3e02801 	mvn	r2, #65536	; 0x10000
    1d10:	e3403001 	movt	r3, #1
    1d14:	e5933000 	ldr	r3, [r3]
    1d18:	e5023843 	str	r3, [r2, #-2115]	; 0xfffff7bd

    while (alt_read_word(ALT_MPUL2_CLEAN_WAY_ADDR))
    1d1c:	e5120843 	ldr	r0, [r2, #-2115]	; 0xfffff7bd
    1d20:	e3500000 	cmp	r0, #0
    1d24:	13a03801 	movne	r3, #65536	; 0x10000
    1d28:	1a000002 	bne	1d38 <alt_cache_l2_clean_all+0x30>
    1d2c:	ea000007 	b	1d50 <alt_cache_l2_clean_all+0x48>
    {
        /*Background operation still in progress. */

        if (i == ALT_CACHE_L2_CLEAN_ALL_TIMEOUT)
    1d30:	e2533001 	subs	r3, r3, #1
    1d34:	0a000003 	beq	1d48 <alt_cache_l2_clean_all+0x40>
    /* Clean by way, all ways.
     / For more information, see L2C-310, section 3.3.10. */

    alt_write_word(ALT_MPUL2_CLEAN_WAY_ADDR, alt_cache_l2_waymask);

    while (alt_read_word(ALT_MPUL2_CLEAN_WAY_ADDR))
    1d38:	e5120843 	ldr	r0, [r2, #-2115]	; 0xfffff7bd
    1d3c:	e3500000 	cmp	r0, #0
    1d40:	1afffffa 	bne	1d30 <alt_cache_l2_clean_all+0x28>
    1d44:	e12fff1e 	bx	lr
    {
        /*Background operation still in progress. */

        if (i == ALT_CACHE_L2_CLEAN_ALL_TIMEOUT)
        {
            return ALT_E_TMO;
    1d48:	e3e0000b 	mvn	r0, #11
    }

    dprintf("CACHE[L2]: Invalidate All time = %d.\n", i);

    return ALT_E_SUCCESS;
}
    1d4c:	e12fff1e 	bx	lr
    1d50:	e12fff1e 	bx	lr

00001d54 <alt_cache_l2_purge>:
ALT_STATUS_CODE alt_cache_l2_purge(void * paddress, size_t length)
{
    /* Verify preconditions:
     /  - length is non-zero
     /  - address and length are on the cache boundaries */
    if (length == 0)
    1d54:	e3510000 	cmp	r1, #0
    1d58:	0a00001a 	beq	1dc8 <alt_cache_l2_purge+0x74>
    {
        return ALT_E_BAD_ARG;
    }
    if (((uintptr_t)paddress & (ALT_CACHE_LINE_SIZE - 1)) != 0)
    1d5c:	e310001f 	tst	r0, #31
    1d60:	1a000018 	bne	1dc8 <alt_cache_l2_purge+0x74>
    {
        return ALT_E_BAD_ARG;
    }
    if ((length & (ALT_CACHE_LINE_SIZE - 1)) != 0)
    1d64:	e311001f 	tst	r1, #31
    1d68:	1a000016 	bne	1dc8 <alt_cache_l2_purge+0x74>
    uintptr_t pa;

    /* For each stride: Issue clean and invalidate line by PA command, then
     / wait for it to complete by polling the same register.
     / For more information, see L2C-310, section 3.3.10. */
    for (pa = paddress; pa < paddress + length; pa += ALT_CACHE_LINE_SIZE)
    1d6c:	e0803001 	add	r3, r0, r1
    1d70:	e1500003 	cmp	r0, r3
    1d74:	2a000004 	bcs	1d8c <alt_cache_l2_purge+0x38>
    {
        alt_write_word(ALT_MPUL2_CLEAN_INV_PA_ADDR, pa);
    1d78:	e3e02801 	mvn	r2, #65536	; 0x10000
    1d7c:	e502080f 	str	r0, [r2, #-2063]	; 0xfffff7f1
    uintptr_t pa;

    /* For each stride: Issue clean and invalidate line by PA command, then
     / wait for it to complete by polling the same register.
     / For more information, see L2C-310, section 3.3.10. */
    for (pa = paddress; pa < paddress + length; pa += ALT_CACHE_LINE_SIZE)
    1d80:	e2800020 	add	r0, r0, #32
    1d84:	e1500003 	cmp	r0, r3
    1d88:	3afffffb 	bcc	1d7c <alt_cache_l2_purge+0x28>
        alt_write_word(ALT_MPUL2_CLEAN_INV_PA_ADDR, pa);

        ++seg;
    }

    while (alt_read_word(ALT_MPUL2_CLEAN_INV_PA_ADDR) & ALT_MPUL2_COMMON_PA_C_SET_MSK)
    1d8c:	e3e02801 	mvn	r2, #65536	; 0x10000
    1d90:	e512080f 	ldr	r0, [r2, #-2063]	; 0xfffff7f1
    1d94:	e2100001 	ands	r0, r0, #1
    1d98:	13a03080 	movne	r3, #128	; 0x80
    1d9c:	1a000002 	bne	1dac <alt_cache_l2_purge+0x58>
    1da0:	ea000005 	b	1dbc <alt_cache_l2_purge+0x68>
    {
        /* Atomic operation still in progress. */

        if (i == ALT_CACHE_L2_PURGE_ADDR_TIMEOUT)
    1da4:	e2533001 	subs	r3, r3, #1
    1da8:	0a000004 	beq	1dc0 <alt_cache_l2_purge+0x6c>
        alt_write_word(ALT_MPUL2_CLEAN_INV_PA_ADDR, pa);

        ++seg;
    }

    while (alt_read_word(ALT_MPUL2_CLEAN_INV_PA_ADDR) & ALT_MPUL2_COMMON_PA_C_SET_MSK)
    1dac:	e512080f 	ldr	r0, [r2, #-2063]	; 0xfffff7f1
    1db0:	e2100001 	ands	r0, r0, #1
    1db4:	1afffffa 	bne	1da4 <alt_cache_l2_purge+0x50>
    1db8:	e12fff1e 	bx	lr
    {
        return ALT_E_BAD_ARG;
    }

    return alt_cache_l2_purge_helper((uintptr_t)paddress, length);
}
    1dbc:	e12fff1e 	bx	lr
    {
        /* Atomic operation still in progress. */

        if (i == ALT_CACHE_L2_PURGE_ADDR_TIMEOUT)
        {
            return ALT_E_TMO;
    1dc0:	e3e0000b 	mvn	r0, #11
    1dc4:	e12fff1e 	bx	lr
    /* Verify preconditions:
     /  - length is non-zero
     /  - address and length are on the cache boundaries */
    if (length == 0)
    {
        return ALT_E_BAD_ARG;
    1dc8:	e3e00008 	mvn	r0, #8
    1dcc:	e12fff1e 	bx	lr

00001dd0 <alt_cache_l2_purge_all>:
    int i = 0;

    /*Clean and invalidate by way, all ways.
    /  For more information, see L2C-310, section 3.3.10. */

    alt_write_word(ALT_MPUL2_CLEAN_INV_WAY_ADDR, alt_cache_l2_waymask);
    1dd0:	e3093fe0 	movw	r3, #40928	; 0x9fe0
    1dd4:	e3e02801 	mvn	r2, #65536	; 0x10000
    1dd8:	e3403001 	movt	r3, #1
    1ddc:	e5933000 	ldr	r3, [r3]
    1de0:	e5023803 	str	r3, [r2, #-2051]	; 0xfffff7fd

    while (alt_read_word(ALT_MPUL2_CLEAN_INV_WAY_ADDR))
    1de4:	e5120803 	ldr	r0, [r2, #-2051]	; 0xfffff7fd
    1de8:	e3500000 	cmp	r0, #0
    1dec:	13a03801 	movne	r3, #65536	; 0x10000
    1df0:	1a000002 	bne	1e00 <alt_cache_l2_purge_all+0x30>
    1df4:	ea000007 	b	1e18 <alt_cache_l2_purge_all+0x48>
    {
        /* Background operation still in progress. */

        if (i == ALT_CACHE_L2_PURGE_ALL_TIMEOUT)
    1df8:	e2533001 	subs	r3, r3, #1
    1dfc:	0a000003 	beq	1e10 <alt_cache_l2_purge_all+0x40>
    /*Clean and invalidate by way, all ways.
    /  For more information, see L2C-310, section 3.3.10. */

    alt_write_word(ALT_MPUL2_CLEAN_INV_WAY_ADDR, alt_cache_l2_waymask);

    while (alt_read_word(ALT_MPUL2_CLEAN_INV_WAY_ADDR))
    1e00:	e5120803 	ldr	r0, [r2, #-2051]	; 0xfffff7fd
    1e04:	e3500000 	cmp	r0, #0
    1e08:	1afffffa 	bne	1df8 <alt_cache_l2_purge_all+0x28>
    1e0c:	e12fff1e 	bx	lr
    {
        /* Background operation still in progress. */

        if (i == ALT_CACHE_L2_PURGE_ALL_TIMEOUT)
        {
            return ALT_E_TMO;
    1e10:	e3e0000b 	mvn	r0, #11
    }

    dprintf("CACHE[L2]: Purge All time = %d.\n", i);

    return ALT_E_SUCCESS;
}
    1e14:	e12fff1e 	bx	lr
    1e18:	e12fff1e 	bx	lr

00001e1c <alt_cache_l2_int_enable>:

ALT_STATUS_CODE alt_cache_l2_int_enable(uint32_t interrupt)
{
    /* Validate the interrupt mask */
    if ((interrupt & ALT_CACHE_L2_INTERRUPT_ALL) == 0)
    1e1c:	e1a03b80 	lsl	r3, r0, #23

    return ALT_E_SUCCESS;
}

ALT_STATUS_CODE alt_cache_l2_int_enable(uint32_t interrupt)
{
    1e20:	e1a02000 	mov	r2, r0
    /* Validate the interrupt mask */
    if ((interrupt & ALT_CACHE_L2_INTERRUPT_ALL) == 0)
    1e24:	e1a03ba3 	lsr	r3, r3, #23
    1e28:	e3530000 	cmp	r3, #0
    {
        return ALT_E_BAD_ARG;
    }

    alt_setbits_word(ALT_MPUL2_INT_MASK_ADDR, interrupt);
    1e2c:	13e03801 	mvnne	r3, #65536	; 0x10000
    return ALT_E_SUCCESS;
    1e30:	13a00000 	movne	r0, #0
    if ((interrupt & ALT_CACHE_L2_INTERRUPT_ALL) == 0)
    {
        return ALT_E_BAD_ARG;
    }

    alt_setbits_word(ALT_MPUL2_INT_MASK_ADDR, interrupt);
    1e34:	15131deb 	ldrne	r1, [r3, #-3563]	; 0xfffff215
ALT_STATUS_CODE alt_cache_l2_int_enable(uint32_t interrupt)
{
    /* Validate the interrupt mask */
    if ((interrupt & ALT_CACHE_L2_INTERRUPT_ALL) == 0)
    {
        return ALT_E_BAD_ARG;
    1e38:	03e00008 	mvneq	r0, #8
    }

    alt_setbits_word(ALT_MPUL2_INT_MASK_ADDR, interrupt);
    1e3c:	11822001 	orrne	r2, r2, r1
    1e40:	15032deb 	strne	r2, [r3, #-3563]	; 0xfffff215
    return ALT_E_SUCCESS;
}
    1e44:	e12fff1e 	bx	lr

00001e48 <alt_cache_l2_int_disable>:

ALT_STATUS_CODE alt_cache_l2_int_disable(uint32_t interrupt)
{
    /* Validate the interrupt mask */
    if ((interrupt & ALT_CACHE_L2_INTERRUPT_ALL) == 0)
    1e48:	e1a03b80 	lsl	r3, r0, #23
    alt_setbits_word(ALT_MPUL2_INT_MASK_ADDR, interrupt);
    return ALT_E_SUCCESS;
}

ALT_STATUS_CODE alt_cache_l2_int_disable(uint32_t interrupt)
{
    1e4c:	e1a02000 	mov	r2, r0
    /* Validate the interrupt mask */
    if ((interrupt & ALT_CACHE_L2_INTERRUPT_ALL) == 0)
    1e50:	e1a03ba3 	lsr	r3, r3, #23
    1e54:	e3530000 	cmp	r3, #0
    {
        return ALT_E_BAD_ARG;
    }

    alt_clrbits_word(ALT_MPUL2_INT_MASK_ADDR, interrupt);
    1e58:	13e03801 	mvnne	r3, #65536	; 0x10000
    return ALT_E_SUCCESS;
    1e5c:	13a00000 	movne	r0, #0
    if ((interrupt & ALT_CACHE_L2_INTERRUPT_ALL) == 0)
    {
        return ALT_E_BAD_ARG;
    }

    alt_clrbits_word(ALT_MPUL2_INT_MASK_ADDR, interrupt);
    1e60:	15131deb 	ldrne	r1, [r3, #-3563]	; 0xfffff215
ALT_STATUS_CODE alt_cache_l2_int_disable(uint32_t interrupt)
{
    /* Validate the interrupt mask */
    if ((interrupt & ALT_CACHE_L2_INTERRUPT_ALL) == 0)
    {
        return ALT_E_BAD_ARG;
    1e64:	03e00008 	mvneq	r0, #8
    }

    alt_clrbits_word(ALT_MPUL2_INT_MASK_ADDR, interrupt);
    1e68:	11c12002 	bicne	r2, r1, r2
    1e6c:	15032deb 	strne	r2, [r3, #-3563]	; 0xfffff215
    return ALT_E_SUCCESS;
}
    1e70:	e12fff1e 	bx	lr

00001e74 <alt_cache_l2_int_status_get>:

uint32_t alt_cache_l2_int_status_get(void)
{
    return alt_read_word(ALT_MPUL2_INT_MASK_STATUS_ADDR);
    1e74:	e3e03801 	mvn	r3, #65536	; 0x10000
    1e78:	e5130de7 	ldr	r0, [r3, #-3559]	; 0xfffff219
}
    1e7c:	e12fff1e 	bx	lr

00001e80 <alt_cache_l2_int_raw_status_get>:

uint32_t alt_cache_l2_int_raw_status_get(void)
{
    return alt_read_word(ALT_MPUL2_INT_RAW_STATUS_ADDR);
    1e80:	e3e03801 	mvn	r3, #65536	; 0x10000
    1e84:	e5130de3 	ldr	r0, [r3, #-3555]	; 0xfffff21d
}
    1e88:	e12fff1e 	bx	lr

00001e8c <alt_cache_l2_int_status_clear>:

ALT_STATUS_CODE alt_cache_l2_int_status_clear(uint32_t interrupt)
{
    /* Validate the interrupt mask */
    if ((interrupt & ALT_CACHE_L2_INTERRUPT_ALL) == 0)
    1e8c:	e1a03b80 	lsl	r3, r0, #23
{
    return alt_read_word(ALT_MPUL2_INT_RAW_STATUS_ADDR);
}

ALT_STATUS_CODE alt_cache_l2_int_status_clear(uint32_t interrupt)
{
    1e90:	e1a02000 	mov	r2, r0
    /* Validate the interrupt mask */
    if ((interrupt & ALT_CACHE_L2_INTERRUPT_ALL) == 0)
    1e94:	e1a03ba3 	lsr	r3, r3, #23
    1e98:	e3530000 	cmp	r3, #0
    {
        return ALT_E_BAD_ARG;
    }

    alt_write_word(ALT_MPUL2_INT_CLEAR_ADDR, interrupt);
    1e9c:	13e03801 	mvnne	r3, #65536	; 0x10000
    return ALT_E_SUCCESS;
    1ea0:	13a00000 	movne	r0, #0
    if ((interrupt & ALT_CACHE_L2_INTERRUPT_ALL) == 0)
    {
        return ALT_E_BAD_ARG;
    }

    alt_write_word(ALT_MPUL2_INT_CLEAR_ADDR, interrupt);
    1ea4:	15032ddf 	strne	r2, [r3, #-3551]	; 0xfffff221
ALT_STATUS_CODE alt_cache_l2_int_status_clear(uint32_t interrupt)
{
    /* Validate the interrupt mask */
    if ((interrupt & ALT_CACHE_L2_INTERRUPT_ALL) == 0)
    {
        return ALT_E_BAD_ARG;
    1ea8:	03e00008 	mvneq	r0, #8
    }

    alt_write_word(ALT_MPUL2_INT_CLEAR_ADDR, interrupt);
    return ALT_E_SUCCESS;
}
    1eac:	e12fff1e 	bx	lr

00001eb0 <alt_int_dist_pending_clear>:

#if !defined(_MSC_VER)
__attribute__((weak)) ALT_STATUS_CODE alt_int_dist_pending_clear(ALT_INT_INTERRUPT_t int_id)
{
    return ALT_E_SUCCESS;
}
    1eb0:	e3a00000 	mov	r0, #0
    1eb4:	e12fff1e 	bx	lr

00001eb8 <alt_cache_l2_ecc_start>:

ALT_STATUS_CODE alt_cache_l2_ecc_start(void * block, size_t size)
{
#if defined(soc_cv_av)
    
    uint32_t way_size = (8 * 1024) << ALT_MPUL2_AUX_CONTROL_WAYSIZE_VALUE_GET(alt_read_word(ALT_MPUL2_AUX_CONTROL_ADDR));
    1eb8:	e3e03801 	mvn	r3, #65536	; 0x10000
    return affinity & 0xFF;
}
#endif

ALT_STATUS_CODE alt_cache_l2_ecc_start(void * block, size_t size)
{
    1ebc:	e92d4ff0 	push	{r4, r5, r6, r7, r8, r9, r10, r11, lr}
#if defined(soc_cv_av)
    
    uint32_t way_size = (8 * 1024) << ALT_MPUL2_AUX_CONTROL_WAYSIZE_VALUE_GET(alt_read_word(ALT_MPUL2_AUX_CONTROL_ADDR));
    1ec0:	e5132efb 	ldr	r2, [r3, #-3835]	; 0xfffff105
    1ec4:	e3a04a02 	mov	r4, #8192	; 0x2000
    return affinity & 0xFF;
}
#endif

ALT_STATUS_CODE alt_cache_l2_ecc_start(void * block, size_t size)
{
    1ec8:	e24dd014 	sub	sp, sp, #20
    1ecc:	e58d0000 	str	r0, [sp]
#if defined(soc_cv_av)
    
    uint32_t way_size = (8 * 1024) << ALT_MPUL2_AUX_CONTROL_WAYSIZE_VALUE_GET(alt_read_word(ALT_MPUL2_AUX_CONTROL_ADDR));
    1ed0:	e7e228d2 	ubfx	r2, r2, #17, #3
    1ed4:	e1a04214 	lsl	r4, r4, r2

    /* Add 32 KiB to the scrubbing size to account for effects of the L1 on scrubbing. */
    uint32_t scrub_way_size = way_size + (32 * 1024);
    1ed8:	e2844902 	add	r4, r4, #32768	; 0x8000

    uint32_t cpu_affinity;
    int way_count;
    int way_lock;

    if (size < scrub_way_size)
    1edc:	e1540001 	cmp	r4, r1
    1ee0:	8a000074 	bhi	20b8 <alt_cache_l2_ecc_start+0x200>
    return ALT_E_SUCCESS;
}

bool alt_cache_l2_is_enabled(void)
{
    uint32_t ctrl = alt_read_word(ALT_MPUL2_CONTROL_ADDR);
    1ee4:	e5133eff 	ldr	r3, [r3, #-3839]	; 0xfffff101
    if ((ctrl & ALT_MPUL2_CONTROL_EN_SET_MSK) != 0)
    1ee8:	e3130001 	tst	r3, #1
    1eec:	0a000071 	beq	20b8 <alt_cache_l2_ecc_start+0x200>
#elif defined(__ARMCC_VERSION)
    __asm("MRC p15, 0, sctlr,    c1, c0, 0");
#elif defined(_MSC_VER)
	sctlr = 0;
#else
    __asm("MRC p15, 0, %0,       c1, c0, 0" : "=r" (sctlr));
    1ef0:	ee113f10 	mrc	15, 0, r3, cr1, cr0, {0}
{
    /* Query SCTLR.I bit (bit 12)
     / See Cortex-A9 TRM, section 4.3.9 */

    uint32_t sctlr = sctlr_read_helper();
    if ( (sctlr & ALT_CPU_SCTLR_I_SET_MSK) != 0 )
    1ef4:	e2132a01 	ands	r2, r3, #4096	; 0x1000
    uint32_t way_size = (8 * 1024) << ALT_MPUL2_AUX_CONTROL_WAYSIZE_VALUE_GET(alt_read_word(ALT_MPUL2_AUX_CONTROL_ADDR));

    /* Add 32 KiB to the scrubbing size to account for effects of the L1 on scrubbing. */
    uint32_t scrub_way_size = way_size + (32 * 1024);

    bool l1_icache   = false;
    1ef8:	058d200c 	streq	r2, [sp, #12]
{
    /* Query SCTLR.I bit (bit 12)
     / See Cortex-A9 TRM, section 4.3.9 */

    uint32_t sctlr = sctlr_read_helper();
    if ( (sctlr & ALT_CPU_SCTLR_I_SET_MSK) != 0 )
    1efc:	0a000003 	beq	1f10 <alt_cache_l2_ecc_start+0x58>
{
    /* Update SCTLR.I bit (bit 12)
     / See Cortex-A9 TRM, section 4.3.9 */

    uint32_t sctlr = sctlr_read_helper();
    sctlr &= ~ALT_CPU_SCTLR_I_SET_MSK;
    1f00:	e3c33a01 	bic	r3, r3, #4096	; 0x1000
    __asm("MCR p15, 0, %[sctlr], c1, c0, 0" : : [sctlr] "r" (sctlr));
#elif defined(__ARMCC_VERSION)
    __asm("MCR p15, 0, sctlr,    c1, c0, 0");
#elif defined(_MSC_VER)
#else
    __asm("MCR p15, 0, %0,       c1, c0, 0" : : "r" (sctlr));
    1f04:	ee013f10 	mcr	15, 0, r3, cr1, cr0, {0}
        return ALT_E_ERROR;
    }

    if (alt_cache_l1_instruction_is_enabled() == true)
    {
        l1_icache = true;
    1f08:	e3a01001 	mov	r1, #1
    1f0c:	e58d100c 	str	r1, [sp, #12]
#elif defined(__ARMCC_VERSION)
    __asm("MRC p15, 0, actlr,    c1, c0, 1");
#elif defined(_MSC_VER)
	actlr = 0;
#else
    __asm("MRC p15, 0, %0,       c1, c0, 1" : "=r" (actlr));
    1f10:	ee113f30 	mrc	15, 0, r3, cr1, cr0, {1}
}

bool alt_cache_l1_prefetch_is_enabled(void)
{
    uint32_t actlr = actlr_read_helper();
    if ((actlr & ALT_CPU_ACTLR_L1PREFETCHEN_SET_MSK) != 0)
    1f14:	e2132004 	ands	r2, r3, #4
    1f18:	1a000090 	bne	2160 <alt_cache_l2_ecc_start+0x2a8>

    /* Add 32 KiB to the scrubbing size to account for effects of the L1 on scrubbing. */
    uint32_t scrub_way_size = way_size + (32 * 1024);

    bool l1_icache   = false;
    bool l1_prefetch = false;
    1f1c:	e58d2004 	str	r2, [sp, #4]
bool alt_cache_l2_prefetch_is_enabled(void)
{
    /* Query the Prefetch Control Register.
     / For more information, see L2C-310, section 3.3.14. */

    uint32_t pfctrl = alt_read_word(ALT_MPUL2_PREFETCH_CTRL_ADDR);
    1f20:	e3e03801 	mvn	r3, #65536	; 0x10000
    1f24:	e513209f 	ldr	r2, [r3, #-159]	; 0xffffff61

    if ((pfctrl & ALT_MPUL2_PREFETCH_CTRL_PF_EN_SET_MSK) == ALT_MPUL2_PREFETCH_CTRL_PF_EN_SET_MSK)
    1f28:	e2022203 	and	r2, r2, #805306368	; 0x30000000
    1f2c:	e3520203 	cmp	r2, #805306368	; 0x30000000
    1f30:	0a00008f 	beq	2174 <alt_cache_l2_ecc_start+0x2bc>
    /* Add 32 KiB to the scrubbing size to account for effects of the L1 on scrubbing. */
    uint32_t scrub_way_size = way_size + (32 * 1024);

    bool l1_icache   = false;
    bool l1_prefetch = false;
    bool l2_prefetch = false;
    1f34:	e3a01000 	mov	r1, #0
    1f38:	e58d1008 	str	r1, [sp, #8]
    int i = 0;

    /*Clean and invalidate by way, all ways.
    /  For more information, see L2C-310, section 3.3.10. */

    alt_write_word(ALT_MPUL2_CLEAN_INV_WAY_ADDR, alt_cache_l2_waymask);
    1f3c:	e3097fe0 	movw	r7, #40928	; 0x9fe0
    1f40:	e3e01801 	mvn	r1, #65536	; 0x10000
    1f44:	e3407001 	movt	r7, #1
    1f48:	e5973000 	ldr	r3, [r7]
    1f4c:	e5013803 	str	r3, [r1, #-2051]	; 0xfffff7fd

    while (alt_read_word(ALT_MPUL2_CLEAN_INV_WAY_ADDR))
    1f50:	e5113803 	ldr	r3, [r1, #-2051]	; 0xfffff7fd
    1f54:	e3530000 	cmp	r3, #0
    1f58:	13a03801 	movne	r3, #65536	; 0x10000
    1f5c:	1a000002 	bne	1f6c <alt_cache_l2_ecc_start+0xb4>
    1f60:	ea000004 	b	1f78 <alt_cache_l2_ecc_start+0xc0>
    {
        /* Background operation still in progress. */

        if (i == ALT_CACHE_L2_PURGE_ALL_TIMEOUT)
    1f64:	e2533001 	subs	r3, r3, #1
    1f68:	0a000002 	beq	1f78 <alt_cache_l2_ecc_start+0xc0>
    /*Clean and invalidate by way, all ways.
    /  For more information, see L2C-310, section 3.3.10. */

    alt_write_word(ALT_MPUL2_CLEAN_INV_WAY_ADDR, alt_cache_l2_waymask);

    while (alt_read_word(ALT_MPUL2_CLEAN_INV_WAY_ADDR))
    1f6c:	e5112803 	ldr	r2, [r1, #-2051]	; 0xfffff7fd
    1f70:	e3520000 	cmp	r2, #0
    1f74:	1afffffa 	bne	1f64 <alt_cache_l2_ecc_start+0xac>
        alt_cache_l2_prefetch_disable();
    }

    /* inline'ed alt_cache_l2_disable(); // This will invalidate all L2 entries */
    alt_cache_l2_purge_all();
    alt_write_word(ALT_MPUL2_CONTROL_ADDR, 0);
    1f78:	e3e03801 	mvn	r3, #65536	; 0x10000
    1f7c:	e3a02000 	mov	r2, #0
    1f80:	e5032eff 	str	r2, [r3, #-3839]	; 0xfffff101
    /* Enable "Full line of zero" feature of the L2C.
     * See L2C-310, section 2.5.5, "Full line of zero write". */
    alt_setbits_word(ALT_MPUL2_AUX_CONTROL_ADDR, ALT_MPUL2_AUX_CONTROL_FULLLINEOFZERO_EN_SET_MSK);

    /* ECC should be enabled before L2 is enabled. (NPP MPU, section 4.3, item 1) */
    alt_write_word(ALT_SYSMGR_ECC_L2_ADDR, ALT_SYSMGR_ECC_L2_EN_SET_MSK);
    1f84:	e3081fff 	movw	r1, #36863	; 0x8fff
    alt_cache_l2_purge_all();
    alt_write_word(ALT_MPUL2_CONTROL_ADDR, 0);

    /* Enable "Full line of zero" feature of the L2C.
     * See L2C-310, section 2.5.5, "Full line of zero write". */
    alt_setbits_word(ALT_MPUL2_AUX_CONTROL_ADDR, ALT_MPUL2_AUX_CONTROL_FULLLINEOFZERO_EN_SET_MSK);
    1f88:	e513cefb 	ldr	r12, [r3, #-3835]	; 0xfffff105

    /* ECC should be enabled before L2 is enabled. (NPP MPU, section 4.3, item 1) */
    alt_write_word(ALT_SYSMGR_ECC_L2_ADDR, ALT_SYSMGR_ECC_L2_EN_SET_MSK);
    1f8c:	e3a02001 	mov	r2, #1
    1f90:	e34f1fd0 	movt	r1, #65488	; 0xffd0
#elif defined(__ARMCC_VERSION)
    __asm("MRC p15, 0, actlr,    c1, c0, 1");
#elif defined(_MSC_VER)
	actlr = 0;
#else
    __asm("MRC p15, 0, %0,       c1, c0, 1" : "=r" (actlr));
    1f94:	ee110f30 	mrc	15, 0, r0, cr1, cr0, {1}
    alt_cache_l2_purge_all();
    alt_write_word(ALT_MPUL2_CONTROL_ADDR, 0);

    /* Enable "Full line of zero" feature of the L2C.
     * See L2C-310, section 2.5.5, "Full line of zero write". */
    alt_setbits_word(ALT_MPUL2_AUX_CONTROL_ADDR, ALT_MPUL2_AUX_CONTROL_FULLLINEOFZERO_EN_SET_MSK);
    1f98:	e18cc002 	orr	r12, r12, r2
     * No need to invalidate all; the previous L2 disable should have purged everything. */
    alt_write_word(ALT_MPUL2_CONTROL_ADDR, ALT_MPUL2_CONTROL_EN_SET_MSK);

    /* Enable "Full line of zero" feature of the A9.
     * See Cortex-A9 TRM, section 4.3.10. */
    actlr_write_helper(actlr_read_helper() | ALT_CPU_ACTLR_WRITEFULLLINEZEROS_SET_MSK);
    1f9c:	e3800008 	orr	r0, r0, #8
    alt_cache_l2_purge_all();
    alt_write_word(ALT_MPUL2_CONTROL_ADDR, 0);

    /* Enable "Full line of zero" feature of the L2C.
     * See L2C-310, section 2.5.5, "Full line of zero write". */
    alt_setbits_word(ALT_MPUL2_AUX_CONTROL_ADDR, ALT_MPUL2_AUX_CONTROL_FULLLINEOFZERO_EN_SET_MSK);
    1fa0:	e503cefb 	str	r12, [r3, #-3835]	; 0xfffff105

    /* ECC should be enabled before L2 is enabled. (NPP MPU, section 4.3, item 1) */
    alt_write_word(ALT_SYSMGR_ECC_L2_ADDR, ALT_SYSMGR_ECC_L2_EN_SET_MSK);
    1fa4:	e5012ebf 	str	r2, [r1, #-3775]	; 0xfffff141

    /* inline'ed alt_cache_l2_enable();
     * No need to invalidate all; the previous L2 disable should have purged everything. */
    alt_write_word(ALT_MPUL2_CONTROL_ADDR, ALT_MPUL2_CONTROL_EN_SET_MSK);
    1fa8:	e5032eff 	str	r2, [r3, #-3839]	; 0xfffff101
    __asm("MCR p15, 0, %[actlr], c1, c0, 1" : : [actlr] "r" (actlr));
#elif defined(__ARMCC_VERSION)
    __asm("MCR p15, 0, actlr,    c1, c0, 1");
#elif defined(_MSC_VER)
#else
    __asm("MCR p15, 0, %0,       c1, c0, 1" : : "r" (actlr));
    1fac:	ee010f30 	mcr	15, 0, r0, cr1, cr0, {1}
#elif defined(__ARMCC_VERSION)
    __asm("MRC p15, 0, affinity,    c0, c0, 5");
#elif defined(_MSC_VER)
	affinity = 0;
#else
    __asm("MRC p15, 0, %0,          c0, c0, 5" : "=r" (affinity));
    1fb0:	ee102fb0 	mrc	15, 0, r2, cr0, cr0, {5}
#endif

    return affinity & 0xFF;
    1fb4:	e6ef2072 	uxtb	r2, r2
    actlr_write_helper(actlr_read_helper() | ALT_CPU_ACTLR_WRITEFULLLINEZEROS_SET_MSK);

    cpu_affinity = get_current_cpu_num();

    /* Loop through all ways for the lock by master configuration. */
    way_count = (alt_cache_l2_waymask == 0x0000ffff) ? 16 : 8;
    1fb8:	e5973000 	ldr	r3, [r7]
    1fbc:	e30fbfff 	movw	r11, #65535	; 0xffff
    1fc0:	e1a04124 	lsr	r4, r4, #2
    1fc4:	e1a08182 	lsl	r8, r2, #3
    1fc8:	e2822e12 	add	r2, r2, #288	; 0x120
    1fcc:	e1a0a182 	lsl	r10, r2, #3
    1fd0:	e153000b 	cmp	r3, r11
    1fd4:	e2888c09 	add	r8, r8, #2304	; 0x900

    for (way_lock = 0; way_lock < way_count; ++way_lock)
    1fd8:	e3a06000 	mov	r6, #0
    1fdc:	e2888004 	add	r8, r8, #4
    actlr_write_helper(actlr_read_helper() | ALT_CPU_ACTLR_WRITEFULLLINEZEROS_SET_MSK);

    cpu_affinity = get_current_cpu_num();

    /* Loop through all ways for the lock by master configuration. */
    way_count = (alt_cache_l2_waymask == 0x0000ffff) ? 16 : 8;
    1fe0:	03a0b010 	moveq	r11, #16
    1fe4:	13a0b008 	movne	r11, #8
    1fe8:	e24aaa11 	sub	r10, r10, #69632	; 0x11000
    1fec:	e2488a11 	sub	r8, r8, #69632	; 0x11000
    {
        register uint32_t * block2;
        register int i;

        /* Lock the current way for Data and Instruction. */
        alt_write_word(ALT_MPUL2_D_LOCKDOWNx_ADDR(cpu_affinity), ~(1 << way_lock) & alt_cache_l2_waymask);
    1ff0:	e3a09001 	mov	r9, #1
    int i = 0;

    /* Invalidate by way, all ways.
     / For more information, see L2C-310, section 3.3.10. */

    alt_write_word(ALT_MPUL2_INV_WAY_ADDR, alt_cache_l2_waymask);
    1ff4:	e3e0c801 	mvn	r12, #65536	; 0x10000

    return affinity & 0xFF;
}
#endif

ALT_STATUS_CODE alt_cache_l2_ecc_start(void * block, size_t size)
    1ff8:	e2445007 	sub	r5, r4, #7

        /* Loop through all words in the block */
        block2 = block;
        for (i = 0; i < (scrub_way_size / sizeof(*block2)); i++)
        {
            *block2 = 0;
    1ffc:	e1a02006 	mov	r2, r6
    {
        register uint32_t * block2;
        register int i;

        /* Lock the current way for Data and Instruction. */
        alt_write_word(ALT_MPUL2_D_LOCKDOWNx_ADDR(cpu_affinity), ~(1 << way_lock) & alt_cache_l2_waymask);
    2000:	e1c31619 	bic	r1, r3, r9, lsl r6
    2004:	e58a1000 	str	r1, [r10]
        alt_write_word(ALT_MPUL2_I_LOCKDOWNx_ADDR(cpu_affinity), ~(1 << way_lock) & alt_cache_l2_waymask);
    2008:	e5881000 	str	r1, [r8]
    int i = 0;

    /* Invalidate by way, all ways.
     / For more information, see L2C-310, section 3.3.10. */

    alt_write_word(ALT_MPUL2_INV_WAY_ADDR, alt_cache_l2_waymask);
    200c:	e50c3883 	str	r3, [r12, #-2179]	; 0xfffff77d

    while (alt_read_word(ALT_MPUL2_INV_WAY_ADDR))
    2010:	e51c3883 	ldr	r3, [r12, #-2179]	; 0xfffff77d
    2014:	e3530000 	cmp	r3, #0
    2018:	13a03a01 	movne	r3, #4096	; 0x1000
    201c:	1a000002 	bne	202c <alt_cache_l2_ecc_start+0x174>
    2020:	ea000004 	b	2038 <alt_cache_l2_ecc_start+0x180>
    {
        /* Background operation still in progress. */

        if (i == ALT_CACHE_L2_INVALIDATE_ALL_TIMEOUT)
    2024:	e2533001 	subs	r3, r3, #1
    2028:	0a000002 	beq	2038 <alt_cache_l2_ecc_start+0x180>
    /* Invalidate by way, all ways.
     / For more information, see L2C-310, section 3.3.10. */

    alt_write_word(ALT_MPUL2_INV_WAY_ADDR, alt_cache_l2_waymask);

    while (alt_read_word(ALT_MPUL2_INV_WAY_ADDR))
    202c:	e51c1883 	ldr	r1, [r12, #-2179]	; 0xfffff77d
    2030:	e3510000 	cmp	r1, #0
    2034:	1afffffa 	bne	2024 <alt_cache_l2_ecc_start+0x16c>
        /* Invalidate All. This will ensure that scrubbing RAM contents does not exist in a different way. */
        alt_cache_l2_invalidate_all();

        /* Loop through all words in the block */
        block2 = block;
        for (i = 0; i < (scrub_way_size / sizeof(*block2)); i++)
    2038:	e3540000 	cmp	r4, #0
    203c:	0a000017 	beq	20a0 <alt_cache_l2_ecc_start+0x1e8>
    2040:	e3540008 	cmp	r4, #8
    2044:	9a00003e 	bls	2144 <alt_cache_l2_ecc_start+0x28c>

    return affinity & 0xFF;
}
#endif

ALT_STATUS_CODE alt_cache_l2_ecc_start(void * block, size_t size)
    2048:	e59d1000 	ldr	r1, [sp]
    204c:	e3a0e000 	mov	lr, #0
    2050:	e2813020 	add	r3, r1, #32
    2054:	e28ee008 	add	lr, lr, #8
    2058:	f5d3f080 	pld	[r3, #128]	; 0x80
    205c:	e28e1001 	add	r1, lr, #1
    2060:	e1a00003 	mov	r0, r3
    2064:	e1510005 	cmp	r1, r5

        /* Loop through all words in the block */
        block2 = block;
        for (i = 0; i < (scrub_way_size / sizeof(*block2)); i++)
        {
            *block2 = 0;
    2068:	e5032020 	str	r2, [r3, #-32]	; 0xffffffe0
    206c:	e503201c 	str	r2, [r3, #-28]	; 0xffffffe4
    2070:	e2833020 	add	r3, r3, #32
    2074:	e5032038 	str	r2, [r3, #-56]	; 0xffffffc8
    2078:	e5032034 	str	r2, [r3, #-52]	; 0xffffffcc
    207c:	e5032030 	str	r2, [r3, #-48]	; 0xffffffd0
    2080:	e503202c 	str	r2, [r3, #-44]	; 0xffffffd4
    2084:	e5032028 	str	r2, [r3, #-40]	; 0xffffffd8
    2088:	e5032024 	str	r2, [r3, #-36]	; 0xffffffdc
    208c:	3afffff0 	bcc	2054 <alt_cache_l2_ecc_start+0x19c>
        /* Invalidate All. This will ensure that scrubbing RAM contents does not exist in a different way. */
        alt_cache_l2_invalidate_all();

        /* Loop through all words in the block */
        block2 = block;
        for (i = 0; i < (scrub_way_size / sizeof(*block2)); i++)
    2090:	e1540001 	cmp	r4, r1
        {
            *block2 = 0;
    2094:	e4802004 	str	r2, [r0], #4
    2098:	e2811001 	add	r1, r1, #1
        /* Invalidate All. This will ensure that scrubbing RAM contents does not exist in a different way. */
        alt_cache_l2_invalidate_all();

        /* Loop through all words in the block */
        block2 = block;
        for (i = 0; i < (scrub_way_size / sizeof(*block2)); i++)
    209c:	8afffffb 	bhi	2090 <alt_cache_l2_ecc_start+0x1d8>
            ++block2;
        }

        /* Don't put the DSB inside the loop. It will disallow the [full line of zero] optimization. */
#if !defined(_MSC_VER)
		__asm("dsb");
    20a0:	f57ff04f 	dsb	sy
    cpu_affinity = get_current_cpu_num();

    /* Loop through all ways for the lock by master configuration. */
    way_count = (alt_cache_l2_waymask == 0x0000ffff) ? 16 : 8;

    for (way_lock = 0; way_lock < way_count; ++way_lock)
    20a4:	e2866001 	add	r6, r6, #1
    20a8:	e15b0006 	cmp	r11, r6
    20ac:	da000004 	ble	20c4 <alt_cache_l2_ecc_start+0x20c>
    20b0:	e5973000 	ldr	r3, [r7]
    20b4:	eaffffd1 	b	2000 <alt_cache_l2_ecc_start+0x148>
    int way_lock;

    if (size < scrub_way_size)
    {
        dprintf("CACHE[ecc:en]: Buffer too small.\n");
        return ALT_E_ERROR;
    20b8:	e3e00000 	mvn	r0, #0
    alt_cache_l2_enable();
    
#endif

    return ALT_E_SUCCESS;
}
    20bc:	e28dd014 	add	sp, sp, #20
    20c0:	e8bd8ff0 	pop	{r4, r5, r6, r7, r8, r9, r10, r11, pc}

    /* Unlock the way lock by master for the current CPU. */
    alt_write_word(ALT_MPUL2_D_LOCKDOWNx_ADDR(cpu_affinity), 0);
    alt_write_word(ALT_MPUL2_I_LOCKDOWNx_ADDR(cpu_affinity), 0);

    if (l1_icache)
    20c4:	e59d300c 	ldr	r3, [sp, #12]
    20c8:	e3530000 	cmp	r3, #0
		__asm("dsb");
#endif
    }

    /* Unlock the way lock by master for the current CPU. */
    alt_write_word(ALT_MPUL2_D_LOCKDOWNx_ADDR(cpu_affinity), 0);
    20cc:	e3a03000 	mov	r3, #0
    20d0:	e58a3000 	str	r3, [r10]
    alt_write_word(ALT_MPUL2_I_LOCKDOWNx_ADDR(cpu_affinity), 0);
    20d4:	e5883000 	str	r3, [r8]

    if (l1_icache)
    20d8:	0a000005 	beq	20f4 <alt_cache_l2_ecc_start+0x23c>
#elif defined(__ARMCC_VERSION)
    __asm("MRC p15, 0, sctlr,    c1, c0, 0");
#elif defined(_MSC_VER)
	sctlr = 0;
#else
    __asm("MRC p15, 0, %0,       c1, c0, 0" : "=r" (sctlr));
    20dc:	ee113f10 	mrc	15, 0, r3, cr1, cr0, {0}
{
    /* Update SCTLR.I bit (bit 12)
     / See Cortex-A9 TRM, section 4.3.9 */

    uint32_t sctlr = sctlr_read_helper();
    if ((sctlr & ALT_CPU_SCTLR_I_SET_MSK) == 0)
    20e0:	e2132a01 	ands	r2, r3, #4096	; 0x1000
    20e4:	1a000002 	bne	20f4 <alt_cache_l2_ecc_start+0x23c>
    __asm("MCR p15, 0, %[dummy], c7, c1, 0" : : [dummy] "r" (dummy));
#elif defined(__ARMCC_VERSION)
    __asm("MCR p15, 0, dummy,    c7, c1, 0");
#elif defined(_MSC_VER)
#else
    __asm("MCR p15, 0, %0,       c7, c1, 0" : : "r" (dummy));
    20e8:	ee072f11 	mcr	15, 0, r2, cr7, cr1, {0}
    uint32_t sctlr = sctlr_read_helper();
    if ((sctlr & ALT_CPU_SCTLR_I_SET_MSK) == 0)
    {
        alt_cache_l1_instruction_invalidate();

        sctlr |= ALT_CPU_SCTLR_I_SET_MSK;
    20ec:	e3833a01 	orr	r3, r3, #4096	; 0x1000
    __asm("MCR p15, 0, %[sctlr], c1, c0, 0" : : [sctlr] "r" (sctlr));
#elif defined(__ARMCC_VERSION)
    __asm("MCR p15, 0, sctlr,    c1, c0, 0");
#elif defined(_MSC_VER)
#else
    __asm("MCR p15, 0, %0,       c1, c0, 0" : : "r" (sctlr));
    20f0:	ee013f10 	mcr	15, 0, r3, cr1, cr0, {0}
    if (l1_icache)
    {
        alt_cache_l1_instruction_enable();
    }

    if (l1_prefetch)
    20f4:	e59d1004 	ldr	r1, [sp, #4]
    20f8:	e3510000 	cmp	r1, #0
    20fc:	0a000002 	beq	210c <alt_cache_l2_ecc_start+0x254>
#elif defined(__ARMCC_VERSION)
    __asm("MRC p15, 0, actlr,    c1, c0, 1");
#elif defined(_MSC_VER)
	actlr = 0;
#else
    __asm("MRC p15, 0, %0,       c1, c0, 1" : "=r" (actlr));
    2100:	ee113f30 	mrc	15, 0, r3, cr1, cr0, {1}
}

ALT_STATUS_CODE alt_cache_l1_prefetch_enable(void)
{
    uint32_t actlr = actlr_read_helper();
    actlr |= ALT_CPU_ACTLR_L1PREFETCHEN_SET_MSK;
    2104:	e3833004 	orr	r3, r3, #4
    __asm("MCR p15, 0, %[actlr], c1, c0, 1" : : [actlr] "r" (actlr));
#elif defined(__ARMCC_VERSION)
    __asm("MCR p15, 0, actlr,    c1, c0, 1");
#elif defined(_MSC_VER)
#else
    __asm("MCR p15, 0, %0,       c1, c0, 1" : : "r" (actlr));
    2108:	ee013f30 	mcr	15, 0, r3, cr1, cr0, {1}
    if (l1_prefetch)
    {
        alt_cache_l1_prefetch_enable();
    }

    if (l2_prefetch)
    210c:	e59d3008 	ldr	r3, [sp, #8]
    {
        alt_cache_l2_prefetch_enable();
    }

    alt_int_dist_pending_clear(ALT_INT_INTERRUPT_L2_ECC_BYTE_WR_IRQ);
    2110:	e3a00043 	mov	r0, #67	; 0x43
    if (l1_prefetch)
    {
        alt_cache_l1_prefetch_enable();
    }

    if (l2_prefetch)
    2114:	e3530000 	cmp	r3, #0
{
    /* Use the Prefetch Control Register instead of Aux Control. This is
     / because the Prefetch Control can be changed while the L2 is enabled.
     / For more information, see L2C-310, section 3.3.14. */

    alt_setbits_word(ALT_MPUL2_PREFETCH_CTRL_ADDR, ALT_MPUL2_PREFETCH_CTRL_PF_EN_SET_MSK);
    2118:	13e03801 	mvnne	r3, #65536	; 0x10000
    211c:	1513209f 	ldrne	r2, [r3, #-159]	; 0xffffff61
    2120:	13822203 	orrne	r2, r2, #805306368	; 0x30000000
    2124:	1503209f 	strne	r2, [r3, #-159]	; 0xffffff61
    if (l2_prefetch)
    {
        alt_cache_l2_prefetch_enable();
    }

    alt_int_dist_pending_clear(ALT_INT_INTERRUPT_L2_ECC_BYTE_WR_IRQ);
    2128:	ebffff60 	bl	1eb0 <alt_int_dist_pending_clear>
    alt_int_dist_pending_clear(ALT_INT_INTERRUPT_L2_ECC_CORRECTED_IRQ);
    212c:	e3a00044 	mov	r0, #68	; 0x44
    2130:	ebffff5e 	bl	1eb0 <alt_int_dist_pending_clear>
    alt_int_dist_pending_clear(ALT_INT_INTERRUPT_L2_ECC_UNCORRECTED_IRQ);
    2134:	e3a00045 	mov	r0, #69	; 0x45
    2138:	ebffff5c 	bl	1eb0 <alt_int_dist_pending_clear>

    alt_cache_l2_enable();
    
#endif

    return ALT_E_SUCCESS;
    213c:	e3a00000 	mov	r0, #0
    2140:	eaffffdd 	b	20bc <alt_cache_l2_ecc_start+0x204>
    2144:	e3a01001 	mov	r1, #1

    return affinity & 0xFF;
}
#endif

ALT_STATUS_CODE alt_cache_l2_ecc_start(void * block, size_t size)
    2148:	e59d0000 	ldr	r0, [sp]
        /* Invalidate All. This will ensure that scrubbing RAM contents does not exist in a different way. */
        alt_cache_l2_invalidate_all();

        /* Loop through all words in the block */
        block2 = block;
        for (i = 0; i < (scrub_way_size / sizeof(*block2)); i++)
    214c:	e1540001 	cmp	r4, r1
    2150:	e2811001 	add	r1, r1, #1
        {
            *block2 = 0;
    2154:	e4802004 	str	r2, [r0], #4
        /* Invalidate All. This will ensure that scrubbing RAM contents does not exist in a different way. */
        alt_cache_l2_invalidate_all();

        /* Loop through all words in the block */
        block2 = block;
        for (i = 0; i < (scrub_way_size / sizeof(*block2)); i++)
    2158:	8affffcc 	bhi	2090 <alt_cache_l2_ecc_start+0x1d8>
    215c:	eaffffcf 	b	20a0 <alt_cache_l2_ecc_start+0x1e8>
}

ALT_STATUS_CODE alt_cache_l1_prefetch_disable(void)
{
    uint32_t actlr = actlr_read_helper();
    actlr &= ~ALT_CPU_ACTLR_L1PREFETCHEN_SET_MSK;
    2160:	e3c33004 	bic	r3, r3, #4
    __asm("MCR p15, 0, %[actlr], c1, c0, 1" : : [actlr] "r" (actlr));
#elif defined(__ARMCC_VERSION)
    __asm("MCR p15, 0, actlr,    c1, c0, 1");
#elif defined(_MSC_VER)
#else
    __asm("MCR p15, 0, %0,       c1, c0, 1" : : "r" (actlr));
    2164:	ee013f30 	mcr	15, 0, r3, cr1, cr0, {1}
        alt_cache_l1_instruction_disable();
    }

    if (alt_cache_l1_prefetch_is_enabled() == true)
    {
        l1_prefetch = true;
    2168:	e3a03001 	mov	r3, #1
    216c:	e58d3004 	str	r3, [sp, #4]
    2170:	eaffff6a 	b	1f20 <alt_cache_l2_ecc_start+0x68>
{
    /* Use the Prefetch Control Register instead of Aux Control. This is
     / because the Prefetch Control can be changed while the L2 is enabled.
     / For more information, see L2C-310, section 3.3.14. */

    alt_clrbits_word(ALT_MPUL2_PREFETCH_CTRL_ADDR, ALT_MPUL2_PREFETCH_CTRL_PF_EN_SET_MSK);
    2174:	e513209f 	ldr	r2, [r3, #-159]	; 0xffffff61
        alt_cache_l1_prefetch_disable();
    }

    if (alt_cache_l2_prefetch_is_enabled() == true)
    {
        l2_prefetch = true;
    2178:	e3a01001 	mov	r1, #1
    217c:	e58d1008 	str	r1, [sp, #8]
{
    /* Use the Prefetch Control Register instead of Aux Control. This is
     / because the Prefetch Control can be changed while the L2 is enabled.
     / For more information, see L2C-310, section 3.3.14. */

    alt_clrbits_word(ALT_MPUL2_PREFETCH_CTRL_ADDR, ALT_MPUL2_PREFETCH_CTRL_PF_EN_SET_MSK);
    2180:	e3c22203 	bic	r2, r2, #805306368	; 0x30000000
    2184:	e503209f 	str	r2, [r3, #-159]	; 0xffffff61
    2188:	eaffff6b 	b	1f3c <alt_cache_l2_ecc_start+0x84>

0000218c <alt_globaltmr_is_running>:
 * mode bit.
*************************************************************************************************************/

bool alt_globaltmr_is_running(void)
{
    return alt_read_word(ALT_GLOBALTMR_BASE + ALT_GLOBALTMR_CTRL_REG_OFFSET) & ALT_GLOBALTMR_ENABLE_BIT;
    218c:	e3e03a13 	mvn	r3, #77824	; 0x13000
    2190:	e5130df7 	ldr	r0, [r3, #-3575]	; 0xfffff209
}
    2194:	e2000001 	and	r0, r0, #1
    2198:	e12fff1e 	bx	lr

0000219c <alt_globaltmr_uninit>:
/* alt_globaltmr_uninit() uninitializes the global timer modules                        */
/****************************************************************************************/

ALT_STATUS_CODE alt_globaltmr_uninit(void)
{
    alt_clrbits_word(ALT_GLOBALTMR_BASE + ALT_GLOBALTMR_CTRL_REG_OFFSET,
    219c:	e3e03a13 	mvn	r3, #77824	; 0x13000
                ALT_GLOBALTMR_COMP_ENABLE_BIT | ALT_GLOBALTMR_INT_ENABLE_BIT |
                ALT_GLOBALTMR_AUTOINC_ENABLE_BIT);
            /* do NOT clear the global timer enable bit or prescaler setting */
    alt_write_word(ALT_GLOBALTMR_BASE + ALT_GLOBALTMR_COMP_LO_REG_OFFSET, 0);
    21a0:	e3a02000 	mov	r2, #0
/* alt_globaltmr_uninit() uninitializes the global timer modules                        */
/****************************************************************************************/

ALT_STATUS_CODE alt_globaltmr_uninit(void)
{
    alt_clrbits_word(ALT_GLOBALTMR_BASE + ALT_GLOBALTMR_CTRL_REG_OFFSET,
    21a4:	e5131df7 	ldr	r1, [r3, #-3575]	; 0xfffff209
    alt_write_word(ALT_GLOBALTMR_BASE + ALT_GLOBALTMR_COMP_HI_REG_OFFSET, 0);
    alt_write_word(ALT_GLOBALTMR_BASE + ALT_GLOBALTMR_AUTOINC_REG_OFFSET, 0);
    alt_write_word(ALT_GLOBALTMR_BASE + ALT_GLOBALTMR_INT_STAT_REG_OFFSET, ALT_GLOBALTMR_INT_STATUS_BIT);
                /* clear any interrupts by writing one to sticky bit */
    return ALT_E_SUCCESS;
}
    21a8:	e1a00002 	mov	r0, r2
/* alt_globaltmr_uninit() uninitializes the global timer modules                        */
/****************************************************************************************/

ALT_STATUS_CODE alt_globaltmr_uninit(void)
{
    alt_clrbits_word(ALT_GLOBALTMR_BASE + ALT_GLOBALTMR_CTRL_REG_OFFSET,
    21ac:	e3c1100e 	bic	r1, r1, #14
    21b0:	e5031df7 	str	r1, [r3, #-3575]	; 0xfffff209
                ALT_GLOBALTMR_COMP_ENABLE_BIT | ALT_GLOBALTMR_INT_ENABLE_BIT |
                ALT_GLOBALTMR_AUTOINC_ENABLE_BIT);
            /* do NOT clear the global timer enable bit or prescaler setting */
    alt_write_word(ALT_GLOBALTMR_BASE + ALT_GLOBALTMR_COMP_LO_REG_OFFSET, 0);
    21b4:	e5032def 	str	r2, [r3, #-3567]	; 0xfffff211
    alt_write_word(ALT_GLOBALTMR_BASE + ALT_GLOBALTMR_COMP_HI_REG_OFFSET, 0);
    21b8:	e5032deb 	str	r2, [r3, #-3563]	; 0xfffff215
    alt_write_word(ALT_GLOBALTMR_BASE + ALT_GLOBALTMR_AUTOINC_REG_OFFSET, 0);
    21bc:	e5032de7 	str	r2, [r3, #-3559]	; 0xfffff219
    alt_write_word(ALT_GLOBALTMR_BASE + ALT_GLOBALTMR_INT_STAT_REG_OFFSET, ALT_GLOBALTMR_INT_STATUS_BIT);
    21c0:	e3a02001 	mov	r2, #1
    21c4:	e5032df3 	str	r2, [r3, #-3571]	; 0xfffff20d
                /* clear any interrupts by writing one to sticky bit */
    return ALT_E_SUCCESS;
}
    21c8:	e12fff1e 	bx	lr

000021cc <alt_globaltmr_init>:
/* alt_globaltmr_uninit() uninitializes the global timer modules                        */
/****************************************************************************************/

ALT_STATUS_CODE alt_globaltmr_uninit(void)
{
    alt_clrbits_word(ALT_GLOBALTMR_BASE + ALT_GLOBALTMR_CTRL_REG_OFFSET,
    21cc:	e3e03a13 	mvn	r3, #77824	; 0x13000
                ALT_GLOBALTMR_COMP_ENABLE_BIT | ALT_GLOBALTMR_INT_ENABLE_BIT |
                ALT_GLOBALTMR_AUTOINC_ENABLE_BIT);
            /* do NOT clear the global timer enable bit or prescaler setting */
    alt_write_word(ALT_GLOBALTMR_BASE + ALT_GLOBALTMR_COMP_LO_REG_OFFSET, 0);
    21d0:	e3a02000 	mov	r2, #0
/* alt_globaltmr_uninit() uninitializes the global timer modules                        */
/****************************************************************************************/

ALT_STATUS_CODE alt_globaltmr_uninit(void)
{
    alt_clrbits_word(ALT_GLOBALTMR_BASE + ALT_GLOBALTMR_CTRL_REG_OFFSET,
    21d4:	e5131df7 	ldr	r1, [r3, #-3575]	; 0xfffff209
ALT_STATUS_CODE alt_globaltmr_init(void)
{
    alt_globaltmr_uninit();
    alt_setbits_word(ALT_GLOBALTMR_BASE + ALT_GLOBALTMR_CTRL_REG_OFFSET, ALT_GLOBALTMR_ENABLE_BIT);
    return ALT_E_SUCCESS;
}
    21d8:	e1a00002 	mov	r0, r2
/* alt_globaltmr_uninit() uninitializes the global timer modules                        */
/****************************************************************************************/

ALT_STATUS_CODE alt_globaltmr_uninit(void)
{
    alt_clrbits_word(ALT_GLOBALTMR_BASE + ALT_GLOBALTMR_CTRL_REG_OFFSET,
    21dc:	e3c1100e 	bic	r1, r1, #14
    21e0:	e5031df7 	str	r1, [r3, #-3575]	; 0xfffff209
                ALT_GLOBALTMR_COMP_ENABLE_BIT | ALT_GLOBALTMR_INT_ENABLE_BIT |
                ALT_GLOBALTMR_AUTOINC_ENABLE_BIT);
            /* do NOT clear the global timer enable bit or prescaler setting */
    alt_write_word(ALT_GLOBALTMR_BASE + ALT_GLOBALTMR_COMP_LO_REG_OFFSET, 0);
    21e4:	e5032def 	str	r2, [r3, #-3567]	; 0xfffff211
    alt_write_word(ALT_GLOBALTMR_BASE + ALT_GLOBALTMR_COMP_HI_REG_OFFSET, 0);
    21e8:	e5032deb 	str	r2, [r3, #-3563]	; 0xfffff215
    alt_write_word(ALT_GLOBALTMR_BASE + ALT_GLOBALTMR_AUTOINC_REG_OFFSET, 0);
    21ec:	e5032de7 	str	r2, [r3, #-3559]	; 0xfffff219
    alt_write_word(ALT_GLOBALTMR_BASE + ALT_GLOBALTMR_INT_STAT_REG_OFFSET, ALT_GLOBALTMR_INT_STATUS_BIT);
    21f0:	e3a02001 	mov	r2, #1
    21f4:	e5032df3 	str	r2, [r3, #-3571]	; 0xfffff20d
/****************************************************************************************/

ALT_STATUS_CODE alt_globaltmr_init(void)
{
    alt_globaltmr_uninit();
    alt_setbits_word(ALT_GLOBALTMR_BASE + ALT_GLOBALTMR_CTRL_REG_OFFSET, ALT_GLOBALTMR_ENABLE_BIT);
    21f8:	e5132df7 	ldr	r2, [r3, #-3575]	; 0xfffff209
    21fc:	e3822001 	orr	r2, r2, #1
    2200:	e5032df7 	str	r2, [r3, #-3575]	; 0xfffff209
    return ALT_E_SUCCESS;
}
    2204:	e12fff1e 	bx	lr

00002208 <alt_globaltmr_stop>:

ALT_STATUS_CODE alt_globaltmr_stop(void)
{
    uint32_t        regdata;                /* value to read & write */

    regdata = alt_read_word(ALT_GLOBALTMR_BASE + ALT_GLOBALTMR_CTRL_REG_OFFSET);
    2208:	e3e03a13 	mvn	r3, #77824	; 0x13000
    alt_write_word(ALT_GLOBALTMR_BASE + ALT_GLOBALTMR_CTRL_REG_OFFSET, regdata & ~ALT_GLOBALTMR_COMP_ENABLE_BIT);
    return ALT_E_SUCCESS;
}
    220c:	e3a00000 	mov	r0, #0

ALT_STATUS_CODE alt_globaltmr_stop(void)
{
    uint32_t        regdata;                /* value to read & write */

    regdata = alt_read_word(ALT_GLOBALTMR_BASE + ALT_GLOBALTMR_CTRL_REG_OFFSET);
    2210:	e5132df7 	ldr	r2, [r3, #-3575]	; 0xfffff209
    alt_write_word(ALT_GLOBALTMR_BASE + ALT_GLOBALTMR_CTRL_REG_OFFSET, regdata & ~ALT_GLOBALTMR_COMP_ENABLE_BIT);
    2214:	e3c22002 	bic	r2, r2, #2
    2218:	e5032df7 	str	r2, [r3, #-3575]	; 0xfffff209
    return ALT_E_SUCCESS;
}
    221c:	e12fff1e 	bx	lr

00002220 <alt_globaltmr_start>:

ALT_STATUS_CODE alt_globaltmr_start(void)
{
    uint32_t        regdata;                /* value to read & write */

    regdata = alt_read_word(ALT_GLOBALTMR_BASE + ALT_GLOBALTMR_CTRL_REG_OFFSET);
    2220:	e3e03a13 	mvn	r3, #77824	; 0x13000
    alt_write_word(ALT_GLOBALTMR_BASE + ALT_GLOBALTMR_CTRL_REG_OFFSET, regdata | (ALT_GLOBALTMR_COMP_ENABLE_BIT | ALT_GLOBALTMR_ENABLE_BIT));
    return ALT_E_SUCCESS;
}
    2224:	e3a00000 	mov	r0, #0

ALT_STATUS_CODE alt_globaltmr_start(void)
{
    uint32_t        regdata;                /* value to read & write */

    regdata = alt_read_word(ALT_GLOBALTMR_BASE + ALT_GLOBALTMR_CTRL_REG_OFFSET);
    2228:	e5132df7 	ldr	r2, [r3, #-3575]	; 0xfffff209
    alt_write_word(ALT_GLOBALTMR_BASE + ALT_GLOBALTMR_CTRL_REG_OFFSET, regdata | (ALT_GLOBALTMR_COMP_ENABLE_BIT | ALT_GLOBALTMR_ENABLE_BIT));
    222c:	e3822003 	orr	r2, r2, #3
    2230:	e5032df7 	str	r2, [r3, #-3575]	; 0xfffff209
    return ALT_E_SUCCESS;
}
    2234:	e12fff1e 	bx	lr

00002238 <alt_globaltmr_get>:
{
    ALT_STATUS_CODE     ret = ALT_E_ERROR;
    uint32_t            hi, lo, temp;                   /* temporary variables */
    uint32_t            cnt = 3;                        /* Timeout counter, do 3 tries */

    if ((highword == NULL) || (loword == NULL)) { ret = ALT_E_BAD_ARG; }
    2238:	e3500000 	cmp	r0, #0
    223c:	13510000 	cmpne	r1, #0
/*************************************************************************************************************
 * alt_globaltmr_get() returns the current value of the 64-bit global timer as two unsigned 32-bit quantities.
*************************************************************************************************************/

ALT_STATUS_CODE alt_globaltmr_get(uint32_t* highword, uint32_t* loword)
{
    2240:	e52d4004 	push	{r4}		; (str r4, [sp, #-4]!)
    ALT_STATUS_CODE     ret = ALT_E_ERROR;
    uint32_t            hi, lo, temp;                   /* temporary variables */
    uint32_t            cnt = 3;                        /* Timeout counter, do 3 tries */

    if ((highword == NULL) || (loword == NULL)) { ret = ALT_E_BAD_ARG; }
    2244:	0a000017 	beq	22a8 <alt_globaltmr_get+0x70>
    else
    {
        hi = alt_read_word(ALT_GLOBALTMR_BASE + ALT_GLOBALTMR_CNTR_HI_REG_OFFSET);
    2248:	e3e03a13 	mvn	r3, #77824	; 0x13000
    224c:	e5132dfb 	ldr	r2, [r3, #-3579]	; 0xfffff205
        do {
            temp = hi;
            lo = alt_read_word(ALT_GLOBALTMR_BASE + ALT_GLOBALTMR_CNTR_LO_REG_OFFSET);
    2250:	e513cdff 	ldr	r12, [r3, #-3583]	; 0xfffff201
            hi = alt_read_word(ALT_GLOBALTMR_BASE + ALT_GLOBALTMR_CNTR_HI_REG_OFFSET);
    2254:	e5134dfb 	ldr	r4, [r3, #-3579]	; 0xfffff205
        }  while ((temp != hi) && (cnt--));             /* has the high-order word read the same twice yet? */
    2258:	e1520004 	cmp	r2, r4
    225c:	0a00000c 	beq	2294 <alt_globaltmr_get+0x5c>
    else
    {
        hi = alt_read_word(ALT_GLOBALTMR_BASE + ALT_GLOBALTMR_CNTR_HI_REG_OFFSET);
        do {
            temp = hi;
            lo = alt_read_word(ALT_GLOBALTMR_BASE + ALT_GLOBALTMR_CNTR_LO_REG_OFFSET);
    2260:	e513cdff 	ldr	r12, [r3, #-3583]	; 0xfffff201
            hi = alt_read_word(ALT_GLOBALTMR_BASE + ALT_GLOBALTMR_CNTR_HI_REG_OFFSET);
    2264:	e5132dfb 	ldr	r2, [r3, #-3579]	; 0xfffff205
        }  while ((temp != hi) && (cnt--));             /* has the high-order word read the same twice yet? */
    2268:	e1540002 	cmp	r4, r2
    226c:	0a000008 	beq	2294 <alt_globaltmr_get+0x5c>
    else
    {
        hi = alt_read_word(ALT_GLOBALTMR_BASE + ALT_GLOBALTMR_CNTR_HI_REG_OFFSET);
        do {
            temp = hi;
            lo = alt_read_word(ALT_GLOBALTMR_BASE + ALT_GLOBALTMR_CNTR_LO_REG_OFFSET);
    2270:	e513cdff 	ldr	r12, [r3, #-3583]	; 0xfffff201
            hi = alt_read_word(ALT_GLOBALTMR_BASE + ALT_GLOBALTMR_CNTR_HI_REG_OFFSET);
    2274:	e5134dfb 	ldr	r4, [r3, #-3579]	; 0xfffff205
        }  while ((temp != hi) && (cnt--));             /* has the high-order word read the same twice yet? */
    2278:	e1520004 	cmp	r2, r4
    227c:	0a000004 	beq	2294 <alt_globaltmr_get+0x5c>
    else
    {
        hi = alt_read_word(ALT_GLOBALTMR_BASE + ALT_GLOBALTMR_CNTR_HI_REG_OFFSET);
        do {
            temp = hi;
            lo = alt_read_word(ALT_GLOBALTMR_BASE + ALT_GLOBALTMR_CNTR_LO_REG_OFFSET);
    2280:	e513cdff 	ldr	r12, [r3, #-3583]	; 0xfffff201
            hi = alt_read_word(ALT_GLOBALTMR_BASE + ALT_GLOBALTMR_CNTR_HI_REG_OFFSET);
    2284:	e5132dfb 	ldr	r2, [r3, #-3579]	; 0xfffff205
        }  while ((temp != hi) && (cnt--));             /* has the high-order word read the same twice yet? */
    2288:	e1520004 	cmp	r2, r4
 * alt_globaltmr_get() returns the current value of the 64-bit global timer as two unsigned 32-bit quantities.
*************************************************************************************************************/

ALT_STATUS_CODE alt_globaltmr_get(uint32_t* highword, uint32_t* loword)
{
    ALT_STATUS_CODE     ret = ALT_E_ERROR;
    228c:	03e00000 	mvneq	r0, #0
        hi = alt_read_word(ALT_GLOBALTMR_BASE + ALT_GLOBALTMR_CNTR_HI_REG_OFFSET);
        do {
            temp = hi;
            lo = alt_read_word(ALT_GLOBALTMR_BASE + ALT_GLOBALTMR_CNTR_LO_REG_OFFSET);
            hi = alt_read_word(ALT_GLOBALTMR_BASE + ALT_GLOBALTMR_CNTR_HI_REG_OFFSET);
        }  while ((temp != hi) && (cnt--));             /* has the high-order word read the same twice yet? */
    2290:	0a000002 	beq	22a0 <alt_globaltmr_get+0x68>
                       /* note that if the first condition is true, cnt is neither tested nor decremented */

        if (cnt) {
            *highword = hi;
    2294:	e5802000 	str	r2, [r0]
            *loword = lo;
            ret = ALT_E_SUCCESS;
    2298:	e3a00000 	mov	r0, #0
        }  while ((temp != hi) && (cnt--));             /* has the high-order word read the same twice yet? */
                       /* note that if the first condition is true, cnt is neither tested nor decremented */

        if (cnt) {
            *highword = hi;
            *loword = lo;
    229c:	e581c000 	str	r12, [r1]
            ret = ALT_E_SUCCESS;
        }
    }
    return ret;
}
    22a0:	e8bd0010 	ldmfd	sp!, {r4}
    22a4:	e12fff1e 	bx	lr
{
    ALT_STATUS_CODE     ret = ALT_E_ERROR;
    uint32_t            hi, lo, temp;                   /* temporary variables */
    uint32_t            cnt = 3;                        /* Timeout counter, do 3 tries */

    if ((highword == NULL) || (loword == NULL)) { ret = ALT_E_BAD_ARG; }
    22a8:	e3e00008 	mvn	r0, #8
    22ac:	eafffffb 	b	22a0 <alt_globaltmr_get+0x68>

000022b0 <alt_globaltmr_get64>:

    uint64_t        ret = 0;                    /* zero a very unlikely value for this timer */
    uint32_t        hi, lo, temp;               /* temporary variables */
    uint32_t        cnt = 3;                    /* Timeout counter, do 3 tries */

    hi = alt_read_word(ALT_GLOBALTMR_BASE + ALT_GLOBALTMR_CNTR_HI_REG_OFFSET);
    22b0:	e3e03a13 	mvn	r3, #77824	; 0x13000
    22b4:	e5131dfb 	ldr	r1, [r3, #-3579]	; 0xfffff205
    do {
        temp = hi;
        lo = alt_read_word(ALT_GLOBALTMR_BASE + ALT_GLOBALTMR_CNTR_LO_REG_OFFSET);
    22b8:	e5130dff 	ldr	r0, [r3, #-3583]	; 0xfffff201
        hi = alt_read_word(ALT_GLOBALTMR_BASE + ALT_GLOBALTMR_CNTR_HI_REG_OFFSET);
    22bc:	e5132dfb 	ldr	r2, [r3, #-3579]	; 0xfffff205
    }  while ((temp != hi) && (cnt--));             /* has the high-order word read the same twice yet? */
    22c0:	e1510002 	cmp	r1, r2
    22c4:	0a00000d 	beq	2300 <alt_globaltmr_get64+0x50>
    uint32_t        cnt = 3;                    /* Timeout counter, do 3 tries */

    hi = alt_read_word(ALT_GLOBALTMR_BASE + ALT_GLOBALTMR_CNTR_HI_REG_OFFSET);
    do {
        temp = hi;
        lo = alt_read_word(ALT_GLOBALTMR_BASE + ALT_GLOBALTMR_CNTR_LO_REG_OFFSET);
    22c8:	e5130dff 	ldr	r0, [r3, #-3583]	; 0xfffff201
        hi = alt_read_word(ALT_GLOBALTMR_BASE + ALT_GLOBALTMR_CNTR_HI_REG_OFFSET);
    22cc:	e5131dfb 	ldr	r1, [r3, #-3579]	; 0xfffff205
    }  while ((temp != hi) && (cnt--));             /* has the high-order word read the same twice yet? */
    22d0:	e1520001 	cmp	r2, r1
    22d4:	0a000009 	beq	2300 <alt_globaltmr_get64+0x50>
    uint32_t        cnt = 3;                    /* Timeout counter, do 3 tries */

    hi = alt_read_word(ALT_GLOBALTMR_BASE + ALT_GLOBALTMR_CNTR_HI_REG_OFFSET);
    do {
        temp = hi;
        lo = alt_read_word(ALT_GLOBALTMR_BASE + ALT_GLOBALTMR_CNTR_LO_REG_OFFSET);
    22d8:	e5130dff 	ldr	r0, [r3, #-3583]	; 0xfffff201
